Archive member included to satisfy reference by file (symbol)

/opt/intelFPGA/20.1.1/nios2eds/bin/gnu/H-x86_64-pc-linux-gnu/bin/../lib/gcc/nios2-elf/10.1.1/../../../../../H-x86_64-pc-linux-gnu/nios2-elf/lib/mhw-mulx/libc.a(lib_a-memcpy.o)
                              obj/default/hello_ucosii.o (memcpy)
/opt/intelFPGA/20.1.1/nios2eds/bin/gnu/H-x86_64-pc-linux-gnu/bin/../lib/gcc/nios2-elf/10.1.1/../../../../../H-x86_64-pc-linux-gnu/nios2-elf/lib/mhw-mulx/libc.a(lib_a-printf.o)
                              obj/default/hello_ucosii.o (printf)
/opt/intelFPGA/20.1.1/nios2eds/bin/gnu/H-x86_64-pc-linux-gnu/bin/../lib/gcc/nios2-elf/10.1.1/../../../../../H-x86_64-pc-linux-gnu/nios2-elf/lib/mhw-mulx/libc.a(lib_a-rand.o)
                              obj/default/hello_ucosii.o (srand)
/opt/intelFPGA/20.1.1/nios2eds/bin/gnu/H-x86_64-pc-linux-gnu/bin/../lib/gcc/nios2-elf/10.1.1/../../../../../H-x86_64-pc-linux-gnu/nios2-elf/lib/mhw-mulx/libc.a(lib_a-time.o)
                              obj/default/hello_ucosii.o (time)
/opt/intelFPGA/20.1.1/nios2eds/bin/gnu/H-x86_64-pc-linux-gnu/bin/../lib/gcc/nios2-elf/10.1.1/../../../../../H-x86_64-pc-linux-gnu/nios2-elf/lib/mhw-mulx/libc.a(lib_a-vfprintf.o)
                              /opt/intelFPGA/20.1.1/nios2eds/bin/gnu/H-x86_64-pc-linux-gnu/bin/../lib/gcc/nios2-elf/10.1.1/../../../../../H-x86_64-pc-linux-gnu/nios2-elf/lib/mhw-mulx/libc.a(lib_a-printf.o) (___vfprintf_internal_r)
/opt/intelFPGA/20.1.1/nios2eds/bin/gnu/H-x86_64-pc-linux-gnu/bin/../lib/gcc/nios2-elf/10.1.1/../../../../../H-x86_64-pc-linux-gnu/nios2-elf/lib/mhw-mulx/libc.a(lib_a-wsetup.o)
                              /opt/intelFPGA/20.1.1/nios2eds/bin/gnu/H-x86_64-pc-linux-gnu/bin/../lib/gcc/nios2-elf/10.1.1/../../../../../H-x86_64-pc-linux-gnu/nios2-elf/lib/mhw-mulx/libc.a(lib_a-vfprintf.o) (__swsetup_r)
/opt/intelFPGA/20.1.1/nios2eds/bin/gnu/H-x86_64-pc-linux-gnu/bin/../lib/gcc/nios2-elf/10.1.1/../../../../../H-x86_64-pc-linux-gnu/nios2-elf/lib/mhw-mulx/libc.a(lib_a-dtoa.o)
                              /opt/intelFPGA/20.1.1/nios2eds/bin/gnu/H-x86_64-pc-linux-gnu/bin/../lib/gcc/nios2-elf/10.1.1/../../../../../H-x86_64-pc-linux-gnu/nios2-elf/lib/mhw-mulx/libc.a(lib_a-vfprintf.o) (_dtoa_r)
/opt/intelFPGA/20.1.1/nios2eds/bin/gnu/H-x86_64-pc-linux-gnu/bin/../lib/gcc/nios2-elf/10.1.1/../../../../../H-x86_64-pc-linux-gnu/nios2-elf/lib/mhw-mulx/libc.a(lib_a-fflush.o)
                              /opt/intelFPGA/20.1.1/nios2eds/bin/gnu/H-x86_64-pc-linux-gnu/bin/../lib/gcc/nios2-elf/10.1.1/../../../../../H-x86_64-pc-linux-gnu/nios2-elf/lib/mhw-mulx/libc.a(lib_a-vfprintf.o) (_fflush_r)
/opt/intelFPGA/20.1.1/nios2eds/bin/gnu/H-x86_64-pc-linux-gnu/bin/../lib/gcc/nios2-elf/10.1.1/../../../../../H-x86_64-pc-linux-gnu/nios2-elf/lib/mhw-mulx/libc.a(lib_a-findfp.o)
                              /opt/intelFPGA/20.1.1/nios2eds/bin/gnu/H-x86_64-pc-linux-gnu/bin/../lib/gcc/nios2-elf/10.1.1/../../../../../H-x86_64-pc-linux-gnu/nios2-elf/lib/mhw-mulx/libc.a(lib_a-vfprintf.o) (__sinit)
/opt/intelFPGA/20.1.1/nios2eds/bin/gnu/H-x86_64-pc-linux-gnu/bin/../lib/gcc/nios2-elf/10.1.1/../../../../../H-x86_64-pc-linux-gnu/nios2-elf/lib/mhw-mulx/libc.a(lib_a-freer.o)
                              /opt/intelFPGA/20.1.1/nios2eds/bin/gnu/H-x86_64-pc-linux-gnu/bin/../lib/gcc/nios2-elf/10.1.1/../../../../../H-x86_64-pc-linux-gnu/nios2-elf/lib/mhw-mulx/libc.a(lib_a-wsetup.o) (_free_r)
/opt/intelFPGA/20.1.1/nios2eds/bin/gnu/H-x86_64-pc-linux-gnu/bin/../lib/gcc/nios2-elf/10.1.1/../../../../../H-x86_64-pc-linux-gnu/nios2-elf/lib/mhw-mulx/libc.a(lib_a-fwalk.o)
                              /opt/intelFPGA/20.1.1/nios2eds/bin/gnu/H-x86_64-pc-linux-gnu/bin/../lib/gcc/nios2-elf/10.1.1/../../../../../H-x86_64-pc-linux-gnu/nios2-elf/lib/mhw-mulx/libc.a(lib_a-findfp.o) (_fwalk)
/opt/intelFPGA/20.1.1/nios2eds/bin/gnu/H-x86_64-pc-linux-gnu/bin/../lib/gcc/nios2-elf/10.1.1/../../../../../H-x86_64-pc-linux-gnu/nios2-elf/lib/mhw-mulx/libc.a(lib_a-gettimeofdayr.o)
                              /opt/intelFPGA/20.1.1/nios2eds/bin/gnu/H-x86_64-pc-linux-gnu/bin/../lib/gcc/nios2-elf/10.1.1/../../../../../H-x86_64-pc-linux-gnu/nios2-elf/lib/mhw-mulx/libc.a(lib_a-time.o) (_gettimeofday_r)
/opt/intelFPGA/20.1.1/nios2eds/bin/gnu/H-x86_64-pc-linux-gnu/bin/../lib/gcc/nios2-elf/10.1.1/../../../../../H-x86_64-pc-linux-gnu/nios2-elf/lib/mhw-mulx/libc.a(lib_a-impure.o)
                              /opt/intelFPGA/20.1.1/nios2eds/bin/gnu/H-x86_64-pc-linux-gnu/bin/../lib/gcc/nios2-elf/10.1.1/../../../../../H-x86_64-pc-linux-gnu/nios2-elf/lib/mhw-mulx/libc.a(lib_a-fflush.o) (_global_impure_ptr)
/opt/intelFPGA/20.1.1/nios2eds/bin/gnu/H-x86_64-pc-linux-gnu/bin/../lib/gcc/nios2-elf/10.1.1/../../../../../H-x86_64-pc-linux-gnu/nios2-elf/lib/mhw-mulx/libc.a(lib_a-int_errno.o)
                              /opt/intelFPGA/20.1.1/nios2eds/bin/gnu/H-x86_64-pc-linux-gnu/bin/../lib/gcc/nios2-elf/10.1.1/../../../../../H-x86_64-pc-linux-gnu/nios2-elf/lib/mhw-mulx/libc.a(lib_a-gettimeofdayr.o) (errno)
/opt/intelFPGA/20.1.1/nios2eds/bin/gnu/H-x86_64-pc-linux-gnu/bin/../lib/gcc/nios2-elf/10.1.1/../../../../../H-x86_64-pc-linux-gnu/nios2-elf/lib/mhw-mulx/libc.a(lib_a-localeconv.o)
                              /opt/intelFPGA/20.1.1/nios2eds/bin/gnu/H-x86_64-pc-linux-gnu/bin/../lib/gcc/nios2-elf/10.1.1/../../../../../H-x86_64-pc-linux-gnu/nios2-elf/lib/mhw-mulx/libc.a(lib_a-vfprintf.o) (_localeconv_r)
/opt/intelFPGA/20.1.1/nios2eds/bin/gnu/H-x86_64-pc-linux-gnu/bin/../lib/gcc/nios2-elf/10.1.1/../../../../../H-x86_64-pc-linux-gnu/nios2-elf/lib/mhw-mulx/libc.a(lib_a-makebuf.o)
                              /opt/intelFPGA/20.1.1/nios2eds/bin/gnu/H-x86_64-pc-linux-gnu/bin/../lib/gcc/nios2-elf/10.1.1/../../../../../H-x86_64-pc-linux-gnu/nios2-elf/lib/mhw-mulx/libc.a(lib_a-wsetup.o) (__smakebuf_r)
/opt/intelFPGA/20.1.1/nios2eds/bin/gnu/H-x86_64-pc-linux-gnu/bin/../lib/gcc/nios2-elf/10.1.1/../../../../../H-x86_64-pc-linux-gnu/nios2-elf/lib/mhw-mulx/libc.a(lib_a-mallocr.o)
                              /opt/intelFPGA/20.1.1/nios2eds/bin/gnu/H-x86_64-pc-linux-gnu/bin/../lib/gcc/nios2-elf/10.1.1/../../../../../H-x86_64-pc-linux-gnu/nios2-elf/lib/mhw-mulx/libc.a(lib_a-findfp.o) (_malloc_r)
/opt/intelFPGA/20.1.1/nios2eds/bin/gnu/H-x86_64-pc-linux-gnu/bin/../lib/gcc/nios2-elf/10.1.1/../../../../../H-x86_64-pc-linux-gnu/nios2-elf/lib/mhw-mulx/libc.a(lib_a-memchr.o)
                              /opt/intelFPGA/20.1.1/nios2eds/bin/gnu/H-x86_64-pc-linux-gnu/bin/../lib/gcc/nios2-elf/10.1.1/../../../../../H-x86_64-pc-linux-gnu/nios2-elf/lib/mhw-mulx/libc.a(lib_a-vfprintf.o) (memchr)
/opt/intelFPGA/20.1.1/nios2eds/bin/gnu/H-x86_64-pc-linux-gnu/bin/../lib/gcc/nios2-elf/10.1.1/../../../../../H-x86_64-pc-linux-gnu/nios2-elf/lib/mhw-mulx/libc.a(lib_a-memset.o)
                              /opt/intelFPGA/20.1.1/nios2eds/bin/gnu/H-x86_64-pc-linux-gnu/bin/../lib/gcc/nios2-elf/10.1.1/../../../../../H-x86_64-pc-linux-gnu/nios2-elf/lib/mhw-mulx/libc.a(lib_a-findfp.o) (memset)
/opt/intelFPGA/20.1.1/nios2eds/bin/gnu/H-x86_64-pc-linux-gnu/bin/../lib/gcc/nios2-elf/10.1.1/../../../../../H-x86_64-pc-linux-gnu/nios2-elf/lib/mhw-mulx/libc.a(lib_a-mprec.o)
                              /opt/intelFPGA/20.1.1/nios2eds/bin/gnu/H-x86_64-pc-linux-gnu/bin/../lib/gcc/nios2-elf/10.1.1/../../../../../H-x86_64-pc-linux-gnu/nios2-elf/lib/mhw-mulx/libc.a(lib_a-dtoa.o) (_Balloc)
/opt/intelFPGA/20.1.1/nios2eds/bin/gnu/H-x86_64-pc-linux-gnu/bin/../lib/gcc/nios2-elf/10.1.1/../../../../../H-x86_64-pc-linux-gnu/nios2-elf/lib/mhw-mulx/libc.a(lib_a-sbrkr.o)
                              /opt/intelFPGA/20.1.1/nios2eds/bin/gnu/H-x86_64-pc-linux-gnu/bin/../lib/gcc/nios2-elf/10.1.1/../../../../../H-x86_64-pc-linux-gnu/nios2-elf/lib/mhw-mulx/libc.a(lib_a-freer.o) (_sbrk_r)
/opt/intelFPGA/20.1.1/nios2eds/bin/gnu/H-x86_64-pc-linux-gnu/bin/../lib/gcc/nios2-elf/10.1.1/../../../../../H-x86_64-pc-linux-gnu/nios2-elf/lib/mhw-mulx/libc.a(lib_a-stdio.o)
                              /opt/intelFPGA/20.1.1/nios2eds/bin/gnu/H-x86_64-pc-linux-gnu/bin/../lib/gcc/nios2-elf/10.1.1/../../../../../H-x86_64-pc-linux-gnu/nios2-elf/lib/mhw-mulx/libc.a(lib_a-findfp.o) (__sread)
/opt/intelFPGA/20.1.1/nios2eds/bin/gnu/H-x86_64-pc-linux-gnu/bin/../lib/gcc/nios2-elf/10.1.1/../../../../../H-x86_64-pc-linux-gnu/nios2-elf/lib/mhw-mulx/libc.a(lib_a-strlen.o)
                              /opt/intelFPGA/20.1.1/nios2eds/bin/gnu/H-x86_64-pc-linux-gnu/bin/../lib/gcc/nios2-elf/10.1.1/../../../../../H-x86_64-pc-linux-gnu/nios2-elf/lib/mhw-mulx/libc.a(lib_a-vfprintf.o) (strlen)
/opt/intelFPGA/20.1.1/nios2eds/bin/gnu/H-x86_64-pc-linux-gnu/bin/../lib/gcc/nios2-elf/10.1.1/../../../../../H-x86_64-pc-linux-gnu/nios2-elf/lib/mhw-mulx/libc.a(lib_a-vfiprintf.o)
                              /opt/intelFPGA/20.1.1/nios2eds/bin/gnu/H-x86_64-pc-linux-gnu/bin/../lib/gcc/nios2-elf/10.1.1/../../../../../H-x86_64-pc-linux-gnu/nios2-elf/lib/mhw-mulx/libc.a(lib_a-vfprintf.o) (__sprint_r)
/opt/intelFPGA/20.1.1/nios2eds/bin/gnu/H-x86_64-pc-linux-gnu/bin/../lib/gcc/nios2-elf/10.1.1/../../../../../H-x86_64-pc-linux-gnu/nios2-elf/lib/mhw-mulx/libc.a(lib_a-writer.o)
                              /opt/intelFPGA/20.1.1/nios2eds/bin/gnu/H-x86_64-pc-linux-gnu/bin/../lib/gcc/nios2-elf/10.1.1/../../../../../H-x86_64-pc-linux-gnu/nios2-elf/lib/mhw-mulx/libc.a(lib_a-stdio.o) (_write_r)
/opt/intelFPGA/20.1.1/nios2eds/bin/gnu/H-x86_64-pc-linux-gnu/bin/../lib/gcc/nios2-elf/10.1.1/../../../../../H-x86_64-pc-linux-gnu/nios2-elf/lib/mhw-mulx/libc.a(closer.o)
                              /opt/intelFPGA/20.1.1/nios2eds/bin/gnu/H-x86_64-pc-linux-gnu/bin/../lib/gcc/nios2-elf/10.1.1/../../../../../H-x86_64-pc-linux-gnu/nios2-elf/lib/mhw-mulx/libc.a(lib_a-stdio.o) (_close_r)
/opt/intelFPGA/20.1.1/nios2eds/bin/gnu/H-x86_64-pc-linux-gnu/bin/../lib/gcc/nios2-elf/10.1.1/../../../../../H-x86_64-pc-linux-gnu/nios2-elf/lib/mhw-mulx/libc.a(lib_a-assert.o)
                              /opt/intelFPGA/20.1.1/nios2eds/bin/gnu/H-x86_64-pc-linux-gnu/bin/../lib/gcc/nios2-elf/10.1.1/../../../../../H-x86_64-pc-linux-gnu/nios2-elf/lib/mhw-mulx/libc.a(lib_a-dtoa.o) (__assert_func)
/opt/intelFPGA/20.1.1/nios2eds/bin/gnu/H-x86_64-pc-linux-gnu/bin/../lib/gcc/nios2-elf/10.1.1/../../../../../H-x86_64-pc-linux-gnu/nios2-elf/lib/mhw-mulx/libc.a(lib_a-callocr.o)
                              /opt/intelFPGA/20.1.1/nios2eds/bin/gnu/H-x86_64-pc-linux-gnu/bin/../lib/gcc/nios2-elf/10.1.1/../../../../../H-x86_64-pc-linux-gnu/nios2-elf/lib/mhw-mulx/libc.a(lib_a-mprec.o) (_calloc_r)
/opt/intelFPGA/20.1.1/nios2eds/bin/gnu/H-x86_64-pc-linux-gnu/bin/../lib/gcc/nios2-elf/10.1.1/../../../../../H-x86_64-pc-linux-gnu/nios2-elf/lib/mhw-mulx/libc.a(lib_a-fclose.o)
                              /opt/intelFPGA/20.1.1/nios2eds/bin/gnu/H-x86_64-pc-linux-gnu/bin/../lib/gcc/nios2-elf/10.1.1/../../../../../H-x86_64-pc-linux-gnu/nios2-elf/lib/mhw-mulx/libc.a(lib_a-findfp.o) (_fclose_r)
/opt/intelFPGA/20.1.1/nios2eds/bin/gnu/H-x86_64-pc-linux-gnu/bin/../lib/gcc/nios2-elf/10.1.1/../../../../../H-x86_64-pc-linux-gnu/nios2-elf/lib/mhw-mulx/libc.a(lib_a-fiprintf.o)
                              /opt/intelFPGA/20.1.1/nios2eds/bin/gnu/H-x86_64-pc-linux-gnu/bin/../lib/gcc/nios2-elf/10.1.1/../../../../../H-x86_64-pc-linux-gnu/nios2-elf/lib/mhw-mulx/libc.a(lib_a-assert.o) (fiprintf)
/opt/intelFPGA/20.1.1/nios2eds/bin/gnu/H-x86_64-pc-linux-gnu/bin/../lib/gcc/nios2-elf/10.1.1/../../../../../H-x86_64-pc-linux-gnu/nios2-elf/lib/mhw-mulx/libc.a(lib_a-fputwc.o)
                              /opt/intelFPGA/20.1.1/nios2eds/bin/gnu/H-x86_64-pc-linux-gnu/bin/../lib/gcc/nios2-elf/10.1.1/../../../../../H-x86_64-pc-linux-gnu/nios2-elf/lib/mhw-mulx/libc.a(lib_a-vfiprintf.o) (_fputwc_r)
/opt/intelFPGA/20.1.1/nios2eds/bin/gnu/H-x86_64-pc-linux-gnu/bin/../lib/gcc/nios2-elf/10.1.1/../../../../../H-x86_64-pc-linux-gnu/nios2-elf/lib/mhw-mulx/libc.a(lib_a-fstatr.o)
                              /opt/intelFPGA/20.1.1/nios2eds/bin/gnu/H-x86_64-pc-linux-gnu/bin/../lib/gcc/nios2-elf/10.1.1/../../../../../H-x86_64-pc-linux-gnu/nios2-elf/lib/mhw-mulx/libc.a(lib_a-makebuf.o) (_fstat_r)
/opt/intelFPGA/20.1.1/nios2eds/bin/gnu/H-x86_64-pc-linux-gnu/bin/../lib/gcc/nios2-elf/10.1.1/../../../../../H-x86_64-pc-linux-gnu/nios2-elf/lib/mhw-mulx/libc.a(lib_a-fvwrite.o)
                              /opt/intelFPGA/20.1.1/nios2eds/bin/gnu/H-x86_64-pc-linux-gnu/bin/../lib/gcc/nios2-elf/10.1.1/../../../../../H-x86_64-pc-linux-gnu/nios2-elf/lib/mhw-mulx/libc.a(lib_a-vfiprintf.o) (__sfvwrite_r)
/opt/intelFPGA/20.1.1/nios2eds/bin/gnu/H-x86_64-pc-linux-gnu/bin/../lib/gcc/nios2-elf/10.1.1/../../../../../H-x86_64-pc-linux-gnu/nios2-elf/lib/mhw-mulx/libc.a(lib_a-isattyr.o)
                              /opt/intelFPGA/20.1.1/nios2eds/bin/gnu/H-x86_64-pc-linux-gnu/bin/../lib/gcc/nios2-elf/10.1.1/../../../../../H-x86_64-pc-linux-gnu/nios2-elf/lib/mhw-mulx/libc.a(lib_a-makebuf.o) (_isatty_r)
/opt/intelFPGA/20.1.1/nios2eds/bin/gnu/H-x86_64-pc-linux-gnu/bin/../lib/gcc/nios2-elf/10.1.1/../../../../../H-x86_64-pc-linux-gnu/nios2-elf/lib/mhw-mulx/libc.a(lib_a-locale.o)
                              /opt/intelFPGA/20.1.1/nios2eds/bin/gnu/H-x86_64-pc-linux-gnu/bin/../lib/gcc/nios2-elf/10.1.1/../../../../../H-x86_64-pc-linux-gnu/nios2-elf/lib/mhw-mulx/libc.a(lib_a-fputwc.o) (__locale_mb_cur_max)
/opt/intelFPGA/20.1.1/nios2eds/bin/gnu/H-x86_64-pc-linux-gnu/bin/../lib/gcc/nios2-elf/10.1.1/../../../../../H-x86_64-pc-linux-gnu/nios2-elf/lib/mhw-mulx/libc.a(lib_a-lseekr.o)
                              /opt/intelFPGA/20.1.1/nios2eds/bin/gnu/H-x86_64-pc-linux-gnu/bin/../lib/gcc/nios2-elf/10.1.1/../../../../../H-x86_64-pc-linux-gnu/nios2-elf/lib/mhw-mulx/libc.a(lib_a-stdio.o) (_lseek_r)
/opt/intelFPGA/20.1.1/nios2eds/bin/gnu/H-x86_64-pc-linux-gnu/bin/../lib/gcc/nios2-elf/10.1.1/../../../../../H-x86_64-pc-linux-gnu/nios2-elf/lib/mhw-mulx/libc.a(lib_a-mbtowc_r.o)
                              /opt/intelFPGA/20.1.1/nios2eds/bin/gnu/H-x86_64-pc-linux-gnu/bin/../lib/gcc/nios2-elf/10.1.1/../../../../../H-x86_64-pc-linux-gnu/nios2-elf/lib/mhw-mulx/libc.a(lib_a-locale.o) (__ascii_mbtowc)
/opt/intelFPGA/20.1.1/nios2eds/bin/gnu/H-x86_64-pc-linux-gnu/bin/../lib/gcc/nios2-elf/10.1.1/../../../../../H-x86_64-pc-linux-gnu/nios2-elf/lib/mhw-mulx/libc.a(lib_a-memmove.o)
                              /opt/intelFPGA/20.1.1/nios2eds/bin/gnu/H-x86_64-pc-linux-gnu/bin/../lib/gcc/nios2-elf/10.1.1/../../../../../H-x86_64-pc-linux-gnu/nios2-elf/lib/mhw-mulx/libc.a(lib_a-fvwrite.o) (memmove)
/opt/intelFPGA/20.1.1/nios2eds/bin/gnu/H-x86_64-pc-linux-gnu/bin/../lib/gcc/nios2-elf/10.1.1/../../../../../H-x86_64-pc-linux-gnu/nios2-elf/lib/mhw-mulx/libc.a(lib_a-readr.o)
                              /opt/intelFPGA/20.1.1/nios2eds/bin/gnu/H-x86_64-pc-linux-gnu/bin/../lib/gcc/nios2-elf/10.1.1/../../../../../H-x86_64-pc-linux-gnu/nios2-elf/lib/mhw-mulx/libc.a(lib_a-stdio.o) (_read_r)
/opt/intelFPGA/20.1.1/nios2eds/bin/gnu/H-x86_64-pc-linux-gnu/bin/../lib/gcc/nios2-elf/10.1.1/../../../../../H-x86_64-pc-linux-gnu/nios2-elf/lib/mhw-mulx/libc.a(lib_a-reallocr.o)
                              /opt/intelFPGA/20.1.1/nios2eds/bin/gnu/H-x86_64-pc-linux-gnu/bin/../lib/gcc/nios2-elf/10.1.1/../../../../../H-x86_64-pc-linux-gnu/nios2-elf/lib/mhw-mulx/libc.a(lib_a-fvwrite.o) (_realloc_r)
/opt/intelFPGA/20.1.1/nios2eds/bin/gnu/H-x86_64-pc-linux-gnu/bin/../lib/gcc/nios2-elf/10.1.1/../../../../../H-x86_64-pc-linux-gnu/nios2-elf/lib/mhw-mulx/libc.a(lib_a-strcmp.o)
                              /opt/intelFPGA/20.1.1/nios2eds/bin/gnu/H-x86_64-pc-linux-gnu/bin/../lib/gcc/nios2-elf/10.1.1/../../../../../H-x86_64-pc-linux-gnu/nios2-elf/lib/mhw-mulx/libc.a(lib_a-locale.o) (strcmp)
/opt/intelFPGA/20.1.1/nios2eds/bin/gnu/H-x86_64-pc-linux-gnu/bin/../lib/gcc/nios2-elf/10.1.1/../../../../../H-x86_64-pc-linux-gnu/nios2-elf/lib/mhw-mulx/libc.a(lib_a-vfiprintfr_1.o)
                              /opt/intelFPGA/20.1.1/nios2eds/bin/gnu/H-x86_64-pc-linux-gnu/bin/../lib/gcc/nios2-elf/10.1.1/../../../../../H-x86_64-pc-linux-gnu/nios2-elf/lib/mhw-mulx/libc.a(lib_a-fiprintf.o) (_vfiprintf_r)
/opt/intelFPGA/20.1.1/nios2eds/bin/gnu/H-x86_64-pc-linux-gnu/bin/../lib/gcc/nios2-elf/10.1.1/../../../../../H-x86_64-pc-linux-gnu/nios2-elf/lib/mhw-mulx/libc.a(lib_a-wbuf.o)
                              /opt/intelFPGA/20.1.1/nios2eds/bin/gnu/H-x86_64-pc-linux-gnu/bin/../lib/gcc/nios2-elf/10.1.1/../../../../../H-x86_64-pc-linux-gnu/nios2-elf/lib/mhw-mulx/libc.a(lib_a-fputwc.o) (__swbuf_r)
/opt/intelFPGA/20.1.1/nios2eds/bin/gnu/H-x86_64-pc-linux-gnu/bin/../lib/gcc/nios2-elf/10.1.1/../../../../../H-x86_64-pc-linux-gnu/nios2-elf/lib/mhw-mulx/libc.a(lib_a-wcrtomb.o)
                              /opt/intelFPGA/20.1.1/nios2eds/bin/gnu/H-x86_64-pc-linux-gnu/bin/../lib/gcc/nios2-elf/10.1.1/../../../../../H-x86_64-pc-linux-gnu/nios2-elf/lib/mhw-mulx/libc.a(lib_a-fputwc.o) (_wcrtomb_r)
/opt/intelFPGA/20.1.1/nios2eds/bin/gnu/H-x86_64-pc-linux-gnu/bin/../lib/gcc/nios2-elf/10.1.1/../../../../../H-x86_64-pc-linux-gnu/nios2-elf/lib/mhw-mulx/libc.a(lib_a-wctomb_r.o)
                              /opt/intelFPGA/20.1.1/nios2eds/bin/gnu/H-x86_64-pc-linux-gnu/bin/../lib/gcc/nios2-elf/10.1.1/../../../../../H-x86_64-pc-linux-gnu/nios2-elf/lib/mhw-mulx/libc.a(lib_a-locale.o) (__ascii_wctomb)
/opt/intelFPGA/20.1.1/nios2eds/bin/gnu/H-x86_64-pc-linux-gnu/bin/../lib/gcc/nios2-elf/10.1.1/../../../../../H-x86_64-pc-linux-gnu/nios2-elf/lib/mhw-mulx/libc.a(lib_a-abort.o)
                              /opt/intelFPGA/20.1.1/nios2eds/bin/gnu/H-x86_64-pc-linux-gnu/bin/../lib/gcc/nios2-elf/10.1.1/../../../../../H-x86_64-pc-linux-gnu/nios2-elf/lib/mhw-mulx/libc.a(lib_a-assert.o) (abort)
/opt/intelFPGA/20.1.1/nios2eds/bin/gnu/H-x86_64-pc-linux-gnu/bin/../lib/gcc/nios2-elf/10.1.1/../../../../../H-x86_64-pc-linux-gnu/nios2-elf/lib/mhw-mulx/libc.a(lib_a-ctype_.o)
                              /opt/intelFPGA/20.1.1/nios2eds/bin/gnu/H-x86_64-pc-linux-gnu/bin/../lib/gcc/nios2-elf/10.1.1/../../../../../H-x86_64-pc-linux-gnu/nios2-elf/lib/mhw-mulx/libc.a(lib_a-locale.o) (_ctype_b)
/opt/intelFPGA/20.1.1/nios2eds/bin/gnu/H-x86_64-pc-linux-gnu/bin/../lib/gcc/nios2-elf/10.1.1/../../../../../H-x86_64-pc-linux-gnu/nios2-elf/lib/mhw-mulx/libc.a(lib_a-signal.o)
                              /opt/intelFPGA/20.1.1/nios2eds/bin/gnu/H-x86_64-pc-linux-gnu/bin/../lib/gcc/nios2-elf/10.1.1/../../../../../H-x86_64-pc-linux-gnu/nios2-elf/lib/mhw-mulx/libc.a(lib_a-abort.o) (raise)
/opt/intelFPGA/20.1.1/nios2eds/bin/gnu/H-x86_64-pc-linux-gnu/bin/../lib/gcc/nios2-elf/10.1.1/../../../../../H-x86_64-pc-linux-gnu/nios2-elf/lib/mhw-mulx/libc.a(lib_a-signalr.o)
                              /opt/intelFPGA/20.1.1/nios2eds/bin/gnu/H-x86_64-pc-linux-gnu/bin/../lib/gcc/nios2-elf/10.1.1/../../../../../H-x86_64-pc-linux-gnu/nios2-elf/lib/mhw-mulx/libc.a(lib_a-signal.o) (_kill_r)
/opt/intelFPGA/20.1.1/nios2eds/bin/gnu/H-x86_64-pc-linux-gnu/bin/../lib/gcc/nios2-elf/10.1.1/mhw-mulx/libgcc.a(_udivdi3.o)
                              /opt/intelFPGA/20.1.1/nios2eds/bin/gnu/H-x86_64-pc-linux-gnu/bin/../lib/gcc/nios2-elf/10.1.1/../../../../../H-x86_64-pc-linux-gnu/nios2-elf/lib/mhw-mulx/libc.a(lib_a-vfprintf.o) (__udivdi3)
/opt/intelFPGA/20.1.1/nios2eds/bin/gnu/H-x86_64-pc-linux-gnu/bin/../lib/gcc/nios2-elf/10.1.1/mhw-mulx/libgcc.a(_umoddi3.o)
                              /opt/intelFPGA/20.1.1/nios2eds/bin/gnu/H-x86_64-pc-linux-gnu/bin/../lib/gcc/nios2-elf/10.1.1/../../../../../H-x86_64-pc-linux-gnu/nios2-elf/lib/mhw-mulx/libc.a(lib_a-vfprintf.o) (__umoddi3)
/opt/intelFPGA/20.1.1/nios2eds/bin/gnu/H-x86_64-pc-linux-gnu/bin/../lib/gcc/nios2-elf/10.1.1/mhw-mulx/libgcc.a(lib2-divmod.o)
                              /opt/intelFPGA/20.1.1/nios2eds/bin/gnu/H-x86_64-pc-linux-gnu/bin/../lib/gcc/nios2-elf/10.1.1/../../../../../H-x86_64-pc-linux-gnu/nios2-elf/lib/mhw-mulx/libc.a(lib_a-vfprintf.o) (__divsi3)
/opt/intelFPGA/20.1.1/nios2eds/bin/gnu/H-x86_64-pc-linux-gnu/bin/../lib/gcc/nios2-elf/10.1.1/mhw-mulx/libgcc.a(adddf3.o)
                              /opt/intelFPGA/20.1.1/nios2eds/bin/gnu/H-x86_64-pc-linux-gnu/bin/../lib/gcc/nios2-elf/10.1.1/../../../../../H-x86_64-pc-linux-gnu/nios2-elf/lib/mhw-mulx/libc.a(lib_a-dtoa.o) (__adddf3)
/opt/intelFPGA/20.1.1/nios2eds/bin/gnu/H-x86_64-pc-linux-gnu/bin/../lib/gcc/nios2-elf/10.1.1/mhw-mulx/libgcc.a(divdf3.o)
                              /opt/intelFPGA/20.1.1/nios2eds/bin/gnu/H-x86_64-pc-linux-gnu/bin/../lib/gcc/nios2-elf/10.1.1/../../../../../H-x86_64-pc-linux-gnu/nios2-elf/lib/mhw-mulx/libc.a(lib_a-dtoa.o) (__divdf3)
/opt/intelFPGA/20.1.1/nios2eds/bin/gnu/H-x86_64-pc-linux-gnu/bin/../lib/gcc/nios2-elf/10.1.1/mhw-mulx/libgcc.a(eqdf2.o)
                              /opt/intelFPGA/20.1.1/nios2eds/bin/gnu/H-x86_64-pc-linux-gnu/bin/../lib/gcc/nios2-elf/10.1.1/../../../../../H-x86_64-pc-linux-gnu/nios2-elf/lib/mhw-mulx/libc.a(lib_a-vfprintf.o) (__eqdf2)
/opt/intelFPGA/20.1.1/nios2eds/bin/gnu/H-x86_64-pc-linux-gnu/bin/../lib/gcc/nios2-elf/10.1.1/mhw-mulx/libgcc.a(gedf2.o)
                              /opt/intelFPGA/20.1.1/nios2eds/bin/gnu/H-x86_64-pc-linux-gnu/bin/../lib/gcc/nios2-elf/10.1.1/../../../../../H-x86_64-pc-linux-gnu/nios2-elf/lib/mhw-mulx/libc.a(lib_a-dtoa.o) (__gtdf2)
/opt/intelFPGA/20.1.1/nios2eds/bin/gnu/H-x86_64-pc-linux-gnu/bin/../lib/gcc/nios2-elf/10.1.1/mhw-mulx/libgcc.a(ledf2.o)
                              /opt/intelFPGA/20.1.1/nios2eds/bin/gnu/H-x86_64-pc-linux-gnu/bin/../lib/gcc/nios2-elf/10.1.1/../../../../../H-x86_64-pc-linux-gnu/nios2-elf/lib/mhw-mulx/libc.a(lib_a-vfprintf.o) (__ledf2)
/opt/intelFPGA/20.1.1/nios2eds/bin/gnu/H-x86_64-pc-linux-gnu/bin/../lib/gcc/nios2-elf/10.1.1/mhw-mulx/libgcc.a(muldf3.o)
                              /opt/intelFPGA/20.1.1/nios2eds/bin/gnu/H-x86_64-pc-linux-gnu/bin/../lib/gcc/nios2-elf/10.1.1/../../../../../H-x86_64-pc-linux-gnu/nios2-elf/lib/mhw-mulx/libc.a(lib_a-dtoa.o) (__muldf3)
/opt/intelFPGA/20.1.1/nios2eds/bin/gnu/H-x86_64-pc-linux-gnu/bin/../lib/gcc/nios2-elf/10.1.1/mhw-mulx/libgcc.a(subdf3.o)
                              /opt/intelFPGA/20.1.1/nios2eds/bin/gnu/H-x86_64-pc-linux-gnu/bin/../lib/gcc/nios2-elf/10.1.1/../../../../../H-x86_64-pc-linux-gnu/nios2-elf/lib/mhw-mulx/libc.a(lib_a-dtoa.o) (__subdf3)
/opt/intelFPGA/20.1.1/nios2eds/bin/gnu/H-x86_64-pc-linux-gnu/bin/../lib/gcc/nios2-elf/10.1.1/mhw-mulx/libgcc.a(unorddf2.o)
                              /opt/intelFPGA/20.1.1/nios2eds/bin/gnu/H-x86_64-pc-linux-gnu/bin/../lib/gcc/nios2-elf/10.1.1/../../../../../H-x86_64-pc-linux-gnu/nios2-elf/lib/mhw-mulx/libc.a(lib_a-vfprintf.o) (__unorddf2)
/opt/intelFPGA/20.1.1/nios2eds/bin/gnu/H-x86_64-pc-linux-gnu/bin/../lib/gcc/nios2-elf/10.1.1/mhw-mulx/libgcc.a(fixdfsi.o)
                              /opt/intelFPGA/20.1.1/nios2eds/bin/gnu/H-x86_64-pc-linux-gnu/bin/../lib/gcc/nios2-elf/10.1.1/../../../../../H-x86_64-pc-linux-gnu/nios2-elf/lib/mhw-mulx/libc.a(lib_a-dtoa.o) (__fixdfsi)
/opt/intelFPGA/20.1.1/nios2eds/bin/gnu/H-x86_64-pc-linux-gnu/bin/../lib/gcc/nios2-elf/10.1.1/mhw-mulx/libgcc.a(floatsidf.o)
                              /opt/intelFPGA/20.1.1/nios2eds/bin/gnu/H-x86_64-pc-linux-gnu/bin/../lib/gcc/nios2-elf/10.1.1/../../../../../H-x86_64-pc-linux-gnu/nios2-elf/lib/mhw-mulx/libc.a(lib_a-dtoa.o) (__floatsidf)
/opt/intelFPGA/20.1.1/nios2eds/bin/gnu/H-x86_64-pc-linux-gnu/bin/../lib/gcc/nios2-elf/10.1.1/mhw-mulx/libgcc.a(floatunsidf.o)
                              /opt/intelFPGA/20.1.1/nios2eds/bin/gnu/H-x86_64-pc-linux-gnu/bin/../lib/gcc/nios2-elf/10.1.1/../../../../../H-x86_64-pc-linux-gnu/nios2-elf/lib/mhw-mulx/libc.a(lib_a-dtoa.o) (__floatunsidf)
/opt/intelFPGA/20.1.1/nios2eds/bin/gnu/H-x86_64-pc-linux-gnu/bin/../lib/gcc/nios2-elf/10.1.1/mhw-mulx/libgcc.a(_clz.o)
                              /opt/intelFPGA/20.1.1/nios2eds/bin/gnu/H-x86_64-pc-linux-gnu/bin/../lib/gcc/nios2-elf/10.1.1/mhw-mulx/libgcc.a(_udivdi3.o) (__clz_tab)
/opt/intelFPGA/20.1.1/nios2eds/bin/gnu/H-x86_64-pc-linux-gnu/bin/../lib/gcc/nios2-elf/10.1.1/mhw-mulx/libgcc.a(_clzsi2.o)
                              /opt/intelFPGA/20.1.1/nios2eds/bin/gnu/H-x86_64-pc-linux-gnu/bin/../lib/gcc/nios2-elf/10.1.1/mhw-mulx/libgcc.a(adddf3.o) (__clzsi2)
../ucosii_binary_game_hal_part1_bsp//libucosii_bsp.a(alt_close.o)
                              /opt/intelFPGA/20.1.1/nios2eds/bin/gnu/H-x86_64-pc-linux-gnu/bin/../lib/gcc/nios2-elf/10.1.1/../../../../../H-x86_64-pc-linux-gnu/nios2-elf/lib/mhw-mulx/libc.a(closer.o) (close)
../ucosii_binary_game_hal_part1_bsp//libucosii_bsp.a(alt_dev.o)
                              ../ucosii_binary_game_hal_part1_bsp//libucosii_bsp.a(alt_close.o) (alt_fd_list)
../ucosii_binary_game_hal_part1_bsp//libucosii_bsp.a(alt_errno.o)
                              ../ucosii_binary_game_hal_part1_bsp//libucosii_bsp.a(alt_close.o) (alt_errno)
../ucosii_binary_game_hal_part1_bsp//libucosii_bsp.a(alt_exit.o)
                              /opt/intelFPGA/20.1.1/nios2eds/bin/gnu/H-x86_64-pc-linux-gnu/bin/../lib/gcc/nios2-elf/10.1.1/../../../../../H-x86_64-pc-linux-gnu/nios2-elf/lib/mhw-mulx/libc.a(lib_a-abort.o) (_exit)
../ucosii_binary_game_hal_part1_bsp//libucosii_bsp.a(alt_fstat.o)
                              /opt/intelFPGA/20.1.1/nios2eds/bin/gnu/H-x86_64-pc-linux-gnu/bin/../lib/gcc/nios2-elf/10.1.1/../../../../../H-x86_64-pc-linux-gnu/nios2-elf/lib/mhw-mulx/libc.a(lib_a-fstatr.o) (fstat)
../ucosii_binary_game_hal_part1_bsp//libucosii_bsp.a(alt_getpid.o)
                              /opt/intelFPGA/20.1.1/nios2eds/bin/gnu/H-x86_64-pc-linux-gnu/bin/../lib/gcc/nios2-elf/10.1.1/../../../../../H-x86_64-pc-linux-gnu/nios2-elf/lib/mhw-mulx/libc.a(lib_a-signalr.o) (getpid)
../ucosii_binary_game_hal_part1_bsp//libucosii_bsp.a(alt_gettod.o)
                              /opt/intelFPGA/20.1.1/nios2eds/bin/gnu/H-x86_64-pc-linux-gnu/bin/../lib/gcc/nios2-elf/10.1.1/../../../../../H-x86_64-pc-linux-gnu/nios2-elf/lib/mhw-mulx/libc.a(lib_a-gettimeofdayr.o) (gettimeofday)
../ucosii_binary_game_hal_part1_bsp//libucosii_bsp.a(alt_isatty.o)
                              /opt/intelFPGA/20.1.1/nios2eds/bin/gnu/H-x86_64-pc-linux-gnu/bin/../lib/gcc/nios2-elf/10.1.1/../../../../../H-x86_64-pc-linux-gnu/nios2-elf/lib/mhw-mulx/libc.a(lib_a-isattyr.o) (isatty)
../ucosii_binary_game_hal_part1_bsp//libucosii_bsp.a(alt_kill.o)
                              /opt/intelFPGA/20.1.1/nios2eds/bin/gnu/H-x86_64-pc-linux-gnu/bin/../lib/gcc/nios2-elf/10.1.1/../../../../../H-x86_64-pc-linux-gnu/nios2-elf/lib/mhw-mulx/libc.a(lib_a-signalr.o) (kill)
../ucosii_binary_game_hal_part1_bsp//libucosii_bsp.a(alt_load.o)
                              ../ucosii_binary_game_hal_part1_bsp//obj/HAL/src/crt0.o (alt_load)
../ucosii_binary_game_hal_part1_bsp//libucosii_bsp.a(alt_lseek.o)
                              /opt/intelFPGA/20.1.1/nios2eds/bin/gnu/H-x86_64-pc-linux-gnu/bin/../lib/gcc/nios2-elf/10.1.1/../../../../../H-x86_64-pc-linux-gnu/nios2-elf/lib/mhw-mulx/libc.a(lib_a-lseekr.o) (lseek)
../ucosii_binary_game_hal_part1_bsp//libucosii_bsp.a(alt_main.o)
                              ../ucosii_binary_game_hal_part1_bsp//obj/HAL/src/crt0.o (alt_main)
../ucosii_binary_game_hal_part1_bsp//libucosii_bsp.a(alt_read.o)
                              /opt/intelFPGA/20.1.1/nios2eds/bin/gnu/H-x86_64-pc-linux-gnu/bin/../lib/gcc/nios2-elf/10.1.1/../../../../../H-x86_64-pc-linux-gnu/nios2-elf/lib/mhw-mulx/libc.a(lib_a-readr.o) (read)
../ucosii_binary_game_hal_part1_bsp//libucosii_bsp.a(alt_release_fd.o)
                              ../ucosii_binary_game_hal_part1_bsp//libucosii_bsp.a(alt_close.o) (alt_release_fd)
../ucosii_binary_game_hal_part1_bsp//libucosii_bsp.a(alt_sbrk.o)
                              /opt/intelFPGA/20.1.1/nios2eds/bin/gnu/H-x86_64-pc-linux-gnu/bin/../lib/gcc/nios2-elf/10.1.1/../../../../../H-x86_64-pc-linux-gnu/nios2-elf/lib/mhw-mulx/libc.a(lib_a-sbrkr.o) (sbrk)
../ucosii_binary_game_hal_part1_bsp//libucosii_bsp.a(alt_tick.o)
                              ../ucosii_binary_game_hal_part1_bsp//libucosii_bsp.a(alt_gettod.o) (_alt_tick_rate)
../ucosii_binary_game_hal_part1_bsp//libucosii_bsp.a(alt_write.o)
                              /opt/intelFPGA/20.1.1/nios2eds/bin/gnu/H-x86_64-pc-linux-gnu/bin/../lib/gcc/nios2-elf/10.1.1/../../../../../H-x86_64-pc-linux-gnu/nios2-elf/lib/mhw-mulx/libc.a(lib_a-writer.o) (write)
../ucosii_binary_game_hal_part1_bsp//libucosii_bsp.a(alt_env_lock.o)
                              ../ucosii_binary_game_hal_part1_bsp//libucosii_bsp.a(alt_main.o) (alt_envsem)
../ucosii_binary_game_hal_part1_bsp//libucosii_bsp.a(alt_malloc_lock.o)
                              ../ucosii_binary_game_hal_part1_bsp//libucosii_bsp.a(alt_main.o) (alt_heapsem)
../ucosii_binary_game_hal_part1_bsp//libucosii_bsp.a(os_core.o)
                              ../ucosii_binary_game_hal_part1_bsp//libucosii_bsp.a(alt_exit.o) (OSRunning)
../ucosii_binary_game_hal_part1_bsp//libucosii_bsp.a(os_dbg.o)
                              ../ucosii_binary_game_hal_part1_bsp//libucosii_bsp.a(os_core.o) (OSDebugInit)
../ucosii_binary_game_hal_part1_bsp//libucosii_bsp.a(os_flag.o)
                              obj/default/hello_ucosii.o (OSFlagAccept)
../ucosii_binary_game_hal_part1_bsp//libucosii_bsp.a(os_mem.o)
                              ../ucosii_binary_game_hal_part1_bsp//libucosii_bsp.a(os_core.o) (OS_MemInit)
../ucosii_binary_game_hal_part1_bsp//libucosii_bsp.a(os_mutex.o)
                              obj/default/hello_ucosii.o (OSMutexCreate)
../ucosii_binary_game_hal_part1_bsp//libucosii_bsp.a(os_q.o)
                              obj/default/hello_ucosii.o (OSQAccept)
../ucosii_binary_game_hal_part1_bsp//libucosii_bsp.a(os_sem.o)
                              obj/default/hello_ucosii.o (OSSemAccept)
../ucosii_binary_game_hal_part1_bsp//libucosii_bsp.a(os_task.o)
                              obj/default/hello_ucosii.o (OSTaskCreateExt)
../ucosii_binary_game_hal_part1_bsp//libucosii_bsp.a(os_time.o)
                              obj/default/hello_ucosii.o (OSTimeDly)
../ucosii_binary_game_hal_part1_bsp//libucosii_bsp.a(alt_sys_init.o)
                              ../ucosii_binary_game_hal_part1_bsp//libucosii_bsp.a(alt_main.o) (alt_irq_init)
../ucosii_binary_game_hal_part1_bsp//libucosii_bsp.a(altera_avalon_jtag_uart_fd.o)
                              ../ucosii_binary_game_hal_part1_bsp//libucosii_bsp.a(alt_sys_init.o) (altera_avalon_jtag_uart_read_fd)
../ucosii_binary_game_hal_part1_bsp//libucosii_bsp.a(altera_avalon_jtag_uart_init.o)
                              ../ucosii_binary_game_hal_part1_bsp//libucosii_bsp.a(alt_sys_init.o) (altera_avalon_jtag_uart_init)
../ucosii_binary_game_hal_part1_bsp//libucosii_bsp.a(altera_avalon_jtag_uart_ioctl.o)
                              ../ucosii_binary_game_hal_part1_bsp//libucosii_bsp.a(altera_avalon_jtag_uart_fd.o) (altera_avalon_jtag_uart_ioctl)
../ucosii_binary_game_hal_part1_bsp//libucosii_bsp.a(altera_avalon_jtag_uart_read.o)
                              ../ucosii_binary_game_hal_part1_bsp//libucosii_bsp.a(altera_avalon_jtag_uart_fd.o) (altera_avalon_jtag_uart_read)
../ucosii_binary_game_hal_part1_bsp//libucosii_bsp.a(altera_avalon_jtag_uart_write.o)
                              ../ucosii_binary_game_hal_part1_bsp//libucosii_bsp.a(altera_avalon_jtag_uart_fd.o) (altera_avalon_jtag_uart_write)
../ucosii_binary_game_hal_part1_bsp//libucosii_bsp.a(altera_avalon_timer_sc.o)
                              ../ucosii_binary_game_hal_part1_bsp//libucosii_bsp.a(alt_sys_init.o) (alt_avalon_timer_sc_init)
../ucosii_binary_game_hal_part1_bsp//libucosii_bsp.a(altera_up_avalon_character_lcd.o)
                              ../ucosii_binary_game_hal_part1_bsp//libucosii_bsp.a(alt_sys_init.o) (alt_up_character_lcd_init)
../ucosii_binary_game_hal_part1_bsp//libucosii_bsp.a(altera_up_avalon_irda.o)
                              ../ucosii_binary_game_hal_part1_bsp//libucosii_bsp.a(alt_sys_init.o) (alt_up_irda_read_fd)
../ucosii_binary_game_hal_part1_bsp//libucosii_bsp.a(altera_up_avalon_ps2.o)
                              ../ucosii_binary_game_hal_part1_bsp//libucosii_bsp.a(alt_sys_init.o) (alt_up_ps2_init)
../ucosii_binary_game_hal_part1_bsp//libucosii_bsp.a(altera_up_avalon_rs232.o)
                              ../ucosii_binary_game_hal_part1_bsp//libucosii_bsp.a(alt_sys_init.o) (alt_up_rs232_read_fd)
../ucosii_binary_game_hal_part1_bsp//libucosii_bsp.a(alt_alarm_start.o)
                              ../ucosii_binary_game_hal_part1_bsp//libucosii_bsp.a(altera_avalon_jtag_uart_init.o) (alt_alarm_start)
../ucosii_binary_game_hal_part1_bsp//libucosii_bsp.a(alt_dcache_flush_all.o)
                              ../ucosii_binary_game_hal_part1_bsp//libucosii_bsp.a(alt_load.o) (alt_dcache_flush_all)
../ucosii_binary_game_hal_part1_bsp//libucosii_bsp.a(alt_dev_llist_insert.o)
                              ../ucosii_binary_game_hal_part1_bsp//libucosii_bsp.a(alt_sys_init.o) (alt_dev_llist_insert)
../ucosii_binary_game_hal_part1_bsp//libucosii_bsp.a(alt_do_ctors.o)
                              ../ucosii_binary_game_hal_part1_bsp//libucosii_bsp.a(alt_main.o) (_do_ctors)
../ucosii_binary_game_hal_part1_bsp//libucosii_bsp.a(alt_do_dtors.o)
                              ../ucosii_binary_game_hal_part1_bsp//libucosii_bsp.a(alt_main.o) (_do_dtors)
../ucosii_binary_game_hal_part1_bsp//libucosii_bsp.a(alt_find_dev.o)
                              ../ucosii_binary_game_hal_part1_bsp//libucosii_bsp.a(altera_up_avalon_character_lcd.o) (alt_find_dev)
../ucosii_binary_game_hal_part1_bsp//libucosii_bsp.a(alt_icache_flush_all.o)
                              ../ucosii_binary_game_hal_part1_bsp//libucosii_bsp.a(alt_load.o) (alt_icache_flush_all)
../ucosii_binary_game_hal_part1_bsp//libucosii_bsp.a(alt_io_redirect.o)
                              ../ucosii_binary_game_hal_part1_bsp//libucosii_bsp.a(alt_main.o) (alt_io_redirect)
../ucosii_binary_game_hal_part1_bsp//libucosii_bsp.a(alt_irq_register.o)
                              ../ucosii_binary_game_hal_part1_bsp//libucosii_bsp.a(altera_avalon_jtag_uart_init.o) (alt_irq_register)
../ucosii_binary_game_hal_part1_bsp//libucosii_bsp.a(alt_irq_vars.o)
                              ../ucosii_binary_game_hal_part1_bsp//libucosii_bsp.a(alt_irq_register.o) (alt_irq_active)
../ucosii_binary_game_hal_part1_bsp//libucosii_bsp.a(alt_open.o)
                              ../ucosii_binary_game_hal_part1_bsp//libucosii_bsp.a(alt_io_redirect.o) (open)
../ucosii_binary_game_hal_part1_bsp//libucosii_bsp.a(altera_nios2_gen2_irq.o)
                              ../ucosii_binary_game_hal_part1_bsp//libucosii_bsp.a(alt_sys_init.o) (altera_nios2_gen2_irq_init)
../ucosii_binary_game_hal_part1_bsp//libucosii_bsp.a(os_cpu_a.o)
                              ../ucosii_binary_game_hal_part1_bsp//libucosii_bsp.a(os_core.o) (OSIntCtxSw)
../ucosii_binary_game_hal_part1_bsp//libucosii_bsp.a(os_cpu_c.o)
                              ../ucosii_binary_game_hal_part1_bsp//libucosii_bsp.a(os_task.o) (OSTaskStkInit)
../ucosii_binary_game_hal_part1_bsp//libucosii_bsp.a(alt_find_file.o)
                              ../ucosii_binary_game_hal_part1_bsp//libucosii_bsp.a(alt_open.o) (alt_find_file)
../ucosii_binary_game_hal_part1_bsp//libucosii_bsp.a(alt_get_fd.o)
                              ../ucosii_binary_game_hal_part1_bsp//libucosii_bsp.a(alt_open.o) (alt_get_fd)
../ucosii_binary_game_hal_part1_bsp//libucosii_bsp.a(alt_icache_flush.o)
                              ../ucosii_binary_game_hal_part1_bsp//libucosii_bsp.a(alt_icache_flush_all.o) (alt_icache_flush)
../ucosii_binary_game_hal_part1_bsp//libucosii_bsp.a(alt_irq_entry.o)
                              ../ucosii_binary_game_hal_part1_bsp//libucosii_bsp.a(alt_irq_register.o) (alt_irq_entry)
../ucosii_binary_game_hal_part1_bsp//libucosii_bsp.a(alt_irq_handler.o)
                              ../ucosii_binary_game_hal_part1_bsp//libucosii_bsp.a(alt_irq_register.o) (alt_irq)
../ucosii_binary_game_hal_part1_bsp//libucosii_bsp.a(alt_exception_entry.o)
                              ../ucosii_binary_game_hal_part1_bsp//libucosii_bsp.a(alt_irq_entry.o) (alt_exception)
../ucosii_binary_game_hal_part1_bsp//libucosii_bsp.a(alt_instruction_exception_entry.o)
                              ../ucosii_binary_game_hal_part1_bsp//libucosii_bsp.a(alt_exception_entry.o) (alt_instruction_exception_entry)
/opt/intelFPGA/20.1.1/nios2eds/bin/gnu/H-x86_64-pc-linux-gnu/bin/../lib/gcc/nios2-elf/10.1.1/../../../../../H-x86_64-pc-linux-gnu/nios2-elf/lib/mhw-mulx/libc.a(lib_a-atexit.o)
                              ../ucosii_binary_game_hal_part1_bsp//libucosii_bsp.a(alt_main.o) (atexit)
/opt/intelFPGA/20.1.1/nios2eds/bin/gnu/H-x86_64-pc-linux-gnu/bin/../lib/gcc/nios2-elf/10.1.1/../../../../../H-x86_64-pc-linux-gnu/nios2-elf/lib/mhw-mulx/libc.a(lib_a-exit.o)
                              ../ucosii_binary_game_hal_part1_bsp//libucosii_bsp.a(alt_main.o) (exit)
/opt/intelFPGA/20.1.1/nios2eds/bin/gnu/H-x86_64-pc-linux-gnu/bin/../lib/gcc/nios2-elf/10.1.1/../../../../../H-x86_64-pc-linux-gnu/nios2-elf/lib/mhw-mulx/libc.a(lib_a-memcmp.o)
                              ../ucosii_binary_game_hal_part1_bsp//libucosii_bsp.a(alt_find_dev.o) (memcmp)
/opt/intelFPGA/20.1.1/nios2eds/bin/gnu/H-x86_64-pc-linux-gnu/bin/../lib/gcc/nios2-elf/10.1.1/../../../../../H-x86_64-pc-linux-gnu/nios2-elf/lib/mhw-mulx/libc.a(lib_a-__atexit.o)
                              /opt/intelFPGA/20.1.1/nios2eds/bin/gnu/H-x86_64-pc-linux-gnu/bin/../lib/gcc/nios2-elf/10.1.1/../../../../../H-x86_64-pc-linux-gnu/nios2-elf/lib/mhw-mulx/libc.a(lib_a-atexit.o) (__register_exitproc)
/opt/intelFPGA/20.1.1/nios2eds/bin/gnu/H-x86_64-pc-linux-gnu/bin/../lib/gcc/nios2-elf/10.1.1/../../../../../H-x86_64-pc-linux-gnu/nios2-elf/lib/mhw-mulx/libc.a(lib_a-__call_atexit.o)
                              /opt/intelFPGA/20.1.1/nios2eds/bin/gnu/H-x86_64-pc-linux-gnu/bin/../lib/gcc/nios2-elf/10.1.1/../../../../../H-x86_64-pc-linux-gnu/nios2-elf/lib/mhw-mulx/libc.a(lib_a-exit.o) (__call_exitprocs)

Memory Configuration

Name             Origin             Length             Attributes
reset            0x0000000000000000 0x0000000000000020
SDRAM            0x0000000000000020 0x0000000003ffffe0
VGA_Subsystem_Char_Buf_Subsystem_Onchip_SRAM 0x0000000009000000 0x0000000000002000
*default*        0x0000000000000000 0xffffffffffffffff

Linker script and memory map

LOAD ../ucosii_binary_game_hal_part1_bsp//obj/HAL/src/crt0.o
LOAD obj/default/hello_ucosii.o
LOAD /opt/intelFPGA/20.1.1/nios2eds/bin/gnu/H-x86_64-pc-linux-gnu/bin/../lib/gcc/nios2-elf/10.1.1/../../../../../H-x86_64-pc-linux-gnu/nios2-elf/lib/mhw-mulx/libstdc++.a
LOAD /opt/intelFPGA/20.1.1/nios2eds/bin/gnu/H-x86_64-pc-linux-gnu/bin/../lib/gcc/nios2-elf/10.1.1/../../../../../H-x86_64-pc-linux-gnu/nios2-elf/lib/mhw-mulx/libm.a
LOAD /opt/intelFPGA/20.1.1/nios2eds/bin/gnu/H-x86_64-pc-linux-gnu/bin/../lib/gcc/nios2-elf/10.1.1/mhw-mulx/libgcc.a
START GROUP
LOAD /opt/intelFPGA/20.1.1/nios2eds/bin/gnu/H-x86_64-pc-linux-gnu/bin/../lib/gcc/nios2-elf/10.1.1/../../../../../H-x86_64-pc-linux-gnu/nios2-elf/lib/mhw-mulx/libc.a
LOAD /opt/intelFPGA/20.1.1/nios2eds/bin/gnu/H-x86_64-pc-linux-gnu/bin/../lib/gcc/nios2-elf/10.1.1/mhw-mulx/libgcc.a
LOAD ../ucosii_binary_game_hal_part1_bsp//libucosii_bsp.a
LOAD /opt/intelFPGA/20.1.1/nios2eds/bin/gnu/H-x86_64-pc-linux-gnu/bin/../lib/gcc/nios2-elf/10.1.1/../../../../../H-x86_64-pc-linux-gnu/nios2-elf/lib/mhw-mulx/libm.a
END GROUP
LOAD /opt/intelFPGA/20.1.1/nios2eds/bin/gnu/H-x86_64-pc-linux-gnu/bin/../lib/gcc/nios2-elf/10.1.1/mhw-mulx/libgcc.a
                0x0000000000000000                __alt_mem_SDRAM = 0x0
                0x0000000009000000                __alt_mem_VGA_Subsystem_Char_Buf_Subsystem_Onchip_SRAM = 0x9000000

.entry          0x0000000000000000       0x20
 *(.entry)
 .entry         0x0000000000000000       0x20 ../ucosii_binary_game_hal_part1_bsp//obj/HAL/src/crt0.o
                0x0000000000000000                __reset

.exceptions     0x0000000000000020      0x21c
                0x0000000000000020                PROVIDE (__ram_exceptions_start = ABSOLUTE (.))
                0x0000000000000020                . = ALIGN (0x20)
 *(.irq)
 *(.exceptions.entry.label)
 .exceptions.entry.label
                0x0000000000000020        0x0 ../ucosii_binary_game_hal_part1_bsp//libucosii_bsp.a(alt_irq_entry.o)
                0x0000000000000020                alt_irq_entry
 .exceptions.entry.label
                0x0000000000000020        0x0 ../ucosii_binary_game_hal_part1_bsp//libucosii_bsp.a(alt_exception_entry.o)
                0x0000000000000020                alt_exception
 *(.exceptions.entry.user)
 *(.exceptions.entry.ecc_fatal)
 *(.exceptions.entry)
 .exceptions.entry
                0x0000000000000020       0x54 ../ucosii_binary_game_hal_part1_bsp//libucosii_bsp.a(alt_exception_entry.o)
 *(.exceptions.irqtest.user)
 *(.exceptions.irqtest)
 .exceptions.irqtest
                0x0000000000000074       0x10 ../ucosii_binary_game_hal_part1_bsp//libucosii_bsp.a(alt_irq_entry.o)
 *(.exceptions.irqhandler.user)
 *(.exceptions.irqhandler)
 .exceptions.irqhandler
                0x0000000000000084        0x4 ../ucosii_binary_game_hal_part1_bsp//libucosii_bsp.a(alt_irq_entry.o)
 *(.exceptions.irqreturn.user)
 *(.exceptions.irqreturn)
 .exceptions.irqreturn
                0x0000000000000088        0x4 ../ucosii_binary_game_hal_part1_bsp//libucosii_bsp.a(alt_irq_entry.o)
 *(.exceptions.notirq.label)
 .exceptions.notirq.label
                0x000000000000008c        0x0 ../ucosii_binary_game_hal_part1_bsp//libucosii_bsp.a(alt_irq_entry.o)
 *(.exceptions.notirq.user)
 *(.exceptions.notirq)
 .exceptions.notirq
                0x000000000000008c        0x8 ../ucosii_binary_game_hal_part1_bsp//libucosii_bsp.a(alt_exception_entry.o)
 *(.exceptions.soft.user)
 *(.exceptions.soft)
 *(.exceptions.unknown.user)
 *(.exceptions.unknown)
 .exceptions.unknown
                0x0000000000000094       0x14 ../ucosii_binary_game_hal_part1_bsp//libucosii_bsp.a(alt_exception_entry.o)
 *(.exceptions.exit.label)
 .exceptions.exit.label
                0x00000000000000a8        0x0 ../ucosii_binary_game_hal_part1_bsp//libucosii_bsp.a(alt_irq_entry.o)
 .exceptions.exit.label
                0x00000000000000a8        0x0 ../ucosii_binary_game_hal_part1_bsp//libucosii_bsp.a(alt_exception_entry.o)
 *(.exceptions.exit.user)
 *(.exceptions.exit)
 .exceptions.exit
                0x00000000000000a8       0x54 ../ucosii_binary_game_hal_part1_bsp//libucosii_bsp.a(alt_exception_entry.o)
 *(.exceptions)
 .exceptions    0x00000000000000fc       0xcc ../ucosii_binary_game_hal_part1_bsp//libucosii_bsp.a(alt_irq_handler.o)
                0x00000000000000fc                alt_irq_handler
 .exceptions    0x00000000000001c8       0x74 ../ucosii_binary_game_hal_part1_bsp//libucosii_bsp.a(alt_instruction_exception_entry.o)
                0x00000000000001c8                alt_instruction_exception_entry
                0x000000000000023c                PROVIDE (__ram_exceptions_end = ABSOLUTE (.))
                0x0000000000000020                PROVIDE (__flash_exceptions_start = LOADADDR (.exceptions))

.text           0x000000000000023c    0x1b53c
                [!provide]                        PROVIDE (stext = ABSOLUTE (.))
 *(.interp)
 *(.hash)
 *(.dynsym)
 *(.dynstr)
 *(.gnu.version)
 *(.gnu.version_d)
 *(.gnu.version_r)
 *(.rel.init)
 *(.rela.init)
 *(.rel.text .rel.text.* .rel.gnu.linkonce.t.*)
 *(.rela.text .rela.text.* .rela.gnu.linkonce.t.*)
 *(.rel.fini)
 *(.rela.fini)
 *(.rel.rodata .rel.rodata.* .rel.gnu.linkonce.r.*)
 *(.rela.rodata .rela.rodata.* .rela.gnu.linkonce.r.*)
 *(.rel.data .rel.data.* .rel.gnu.linkonce.d.*)
 *(.rela.data .rela.data.* .rela.gnu.linkonce.d.*)
 *(.rel.tdata .rel.tdata.* .rel.gnu.linkonce.td.*)
 *(.rela.tdata .rela.tdata.* .rela.gnu.linkonce.td.*)
 *(.rel.tbss .rel.tbss.* .rel.gnu.linkonce.tb.*)
 *(.rela.tbss .rela.tbss.* .rela.gnu.linkonce.tb.*)
 *(.rel.ctors)
 *(.rela.ctors)
 *(.rel.dtors)
 *(.rela.dtors)
 *(.rel.got)
 *(.rela.got)
 *(.rel.sdata .rel.sdata.* .rel.gnu.linkonce.s.*)
 *(.rela.sdata .rela.sdata.* .rela.gnu.linkonce.s.*)
 *(.rel.sbss .rel.sbss.* .rel.gnu.linkonce.sb.*)
 *(.rela.sbss .rela.sbss.* .rela.gnu.linkonce.sb.*)
 *(.rel.sdata2 .rel.sdata2.* .rel.gnu.linkonce.s2.*)
 *(.rela.sdata2 .rela.sdata2.* .rela.gnu.linkonce.s2.*)
 *(.rel.sbss2 .rel.sbss2.* .rel.gnu.linkonce.sb2.*)
 *(.rela.sbss2 .rela.sbss2.* .rela.gnu.linkonce.sb2.*)
 *(.rel.bss .rel.bss.* .rel.gnu.linkonce.b.*)
 *(.rela.bss .rela.bss.* .rela.gnu.linkonce.b.*)
 *(.rel.plt)
 *(.rela.plt)
 *(.rel.dyn)
 *(.init)
 *(.plt)
 *(.text .stub .text.* .gnu.linkonce.t.*)
 .text          0x000000000000023c       0x3c ../ucosii_binary_game_hal_part1_bsp//obj/HAL/src/crt0.o
                0x000000000000023c                _start
 .text          0x0000000000000278      0xf7c obj/default/hello_ucosii.o
                0x0000000000000278                LCD_TEXT
                0x00000000000002e8                DEC_TO_HEX
                0x00000000000003d8                POWER_OFF_RESET
                0x00000000000004ac                power_switch_task
                0x00000000000004fc                pushbutton_task
                0x0000000000000660                keys_task
                0x0000000000000854                timer_counter_task
                0x0000000000000920                game_task
                0x0000000000000b84                lcdhex_display_task
                0x0000000000000fcc                main
 .text          0x00000000000011f4        0x0 /opt/intelFPGA/20.1.1/nios2eds/bin/gnu/H-x86_64-pc-linux-gnu/bin/../lib/gcc/nios2-elf/10.1.1/../../../../../H-x86_64-pc-linux-gnu/nios2-elf/lib/mhw-mulx/libc.a(lib_a-memcpy.o)
 .text.memcpy   0x00000000000011f4      0x100 /opt/intelFPGA/20.1.1/nios2eds/bin/gnu/H-x86_64-pc-linux-gnu/bin/../lib/gcc/nios2-elf/10.1.1/../../../../../H-x86_64-pc-linux-gnu/nios2-elf/lib/mhw-mulx/libc.a(lib_a-memcpy.o)
                0x00000000000011f4                memcpy
 .text          0x00000000000012f4        0x0 /opt/intelFPGA/20.1.1/nios2eds/bin/gnu/H-x86_64-pc-linux-gnu/bin/../lib/gcc/nios2-elf/10.1.1/../../../../../H-x86_64-pc-linux-gnu/nios2-elf/lib/mhw-mulx/libc.a(lib_a-printf.o)
 .text._printf_r
                0x00000000000012f4       0x30 /opt/intelFPGA/20.1.1/nios2eds/bin/gnu/H-x86_64-pc-linux-gnu/bin/../lib/gcc/nios2-elf/10.1.1/../../../../../H-x86_64-pc-linux-gnu/nios2-elf/lib/mhw-mulx/libc.a(lib_a-printf.o)
                0x00000000000012f4                _printf_r
 .text.printf   0x0000000000001324       0x38 /opt/intelFPGA/20.1.1/nios2eds/bin/gnu/H-x86_64-pc-linux-gnu/bin/../lib/gcc/nios2-elf/10.1.1/../../../../../H-x86_64-pc-linux-gnu/nios2-elf/lib/mhw-mulx/libc.a(lib_a-printf.o)
                0x0000000000001324                printf
 .text          0x000000000000135c        0x0 /opt/intelFPGA/20.1.1/nios2eds/bin/gnu/H-x86_64-pc-linux-gnu/bin/../lib/gcc/nios2-elf/10.1.1/../../../../../H-x86_64-pc-linux-gnu/nios2-elf/lib/mhw-mulx/libc.a(lib_a-rand.o)
 .text.srand    0x000000000000135c       0x14 /opt/intelFPGA/20.1.1/nios2eds/bin/gnu/H-x86_64-pc-linux-gnu/bin/../lib/gcc/nios2-elf/10.1.1/../../../../../H-x86_64-pc-linux-gnu/nios2-elf/lib/mhw-mulx/libc.a(lib_a-rand.o)
                0x000000000000135c                srand
 .text.rand     0x0000000000001370       0x5c /opt/intelFPGA/20.1.1/nios2eds/bin/gnu/H-x86_64-pc-linux-gnu/bin/../lib/gcc/nios2-elf/10.1.1/../../../../../H-x86_64-pc-linux-gnu/nios2-elf/lib/mhw-mulx/libc.a(lib_a-rand.o)
                0x0000000000001370                rand
 .text          0x00000000000013cc        0x0 /opt/intelFPGA/20.1.1/nios2eds/bin/gnu/H-x86_64-pc-linux-gnu/bin/../lib/gcc/nios2-elf/10.1.1/../../../../../H-x86_64-pc-linux-gnu/nios2-elf/lib/mhw-mulx/libc.a(lib_a-time.o)
 .text.time     0x00000000000013cc       0x58 /opt/intelFPGA/20.1.1/nios2eds/bin/gnu/H-x86_64-pc-linux-gnu/bin/../lib/gcc/nios2-elf/10.1.1/../../../../../H-x86_64-pc-linux-gnu/nios2-elf/lib/mhw-mulx/libc.a(lib_a-time.o)
                0x00000000000013cc                time
 .text          0x0000000000001424        0x0 /opt/intelFPGA/20.1.1/nios2eds/bin/gnu/H-x86_64-pc-linux-gnu/bin/../lib/gcc/nios2-elf/10.1.1/../../../../../H-x86_64-pc-linux-gnu/nios2-elf/lib/mhw-mulx/libc.a(lib_a-vfprintf.o)
 .text.___vfprintf_internal_r
                0x0000000000001424     0x20f4 /opt/intelFPGA/20.1.1/nios2eds/bin/gnu/H-x86_64-pc-linux-gnu/bin/../lib/gcc/nios2-elf/10.1.1/../../../../../H-x86_64-pc-linux-gnu/nios2-elf/lib/mhw-mulx/libc.a(lib_a-vfprintf.o)
                0x0000000000001424                ___vfprintf_internal_r
 .text.__vfprintf_internal
                0x0000000000003518       0x1c /opt/intelFPGA/20.1.1/nios2eds/bin/gnu/H-x86_64-pc-linux-gnu/bin/../lib/gcc/nios2-elf/10.1.1/../../../../../H-x86_64-pc-linux-gnu/nios2-elf/lib/mhw-mulx/libc.a(lib_a-vfprintf.o)
                0x0000000000003518                __vfprintf_internal
 .text.__sbprintf
                0x0000000000003534       0xc0 /opt/intelFPGA/20.1.1/nios2eds/bin/gnu/H-x86_64-pc-linux-gnu/bin/../lib/gcc/nios2-elf/10.1.1/../../../../../H-x86_64-pc-linux-gnu/nios2-elf/lib/mhw-mulx/libc.a(lib_a-vfprintf.o)
 .text          0x00000000000035f4        0x0 /opt/intelFPGA/20.1.1/nios2eds/bin/gnu/H-x86_64-pc-linux-gnu/bin/../lib/gcc/nios2-elf/10.1.1/../../../../../H-x86_64-pc-linux-gnu/nios2-elf/lib/mhw-mulx/libc.a(lib_a-wsetup.o)
 .text.__swsetup_r
                0x00000000000035f4      0x164 /opt/intelFPGA/20.1.1/nios2eds/bin/gnu/H-x86_64-pc-linux-gnu/bin/../lib/gcc/nios2-elf/10.1.1/../../../../../H-x86_64-pc-linux-gnu/nios2-elf/lib/mhw-mulx/libc.a(lib_a-wsetup.o)
                0x00000000000035f4                __swsetup_r
 .text          0x0000000000003758        0x0 /opt/intelFPGA/20.1.1/nios2eds/bin/gnu/H-x86_64-pc-linux-gnu/bin/../lib/gcc/nios2-elf/10.1.1/../../../../../H-x86_64-pc-linux-gnu/nios2-elf/lib/mhw-mulx/libc.a(lib_a-dtoa.o)
 .text.quorem   0x0000000000003758      0x1fc /opt/intelFPGA/20.1.1/nios2eds/bin/gnu/H-x86_64-pc-linux-gnu/bin/../lib/gcc/nios2-elf/10.1.1/../../../../../H-x86_64-pc-linux-gnu/nios2-elf/lib/mhw-mulx/libc.a(lib_a-dtoa.o)
 .text._dtoa_r  0x0000000000003954     0x1748 /opt/intelFPGA/20.1.1/nios2eds/bin/gnu/H-x86_64-pc-linux-gnu/bin/../lib/gcc/nios2-elf/10.1.1/../../../../../H-x86_64-pc-linux-gnu/nios2-elf/lib/mhw-mulx/libc.a(lib_a-dtoa.o)
                0x0000000000003954                _dtoa_r
 .text          0x000000000000509c        0x0 /opt/intelFPGA/20.1.1/nios2eds/bin/gnu/H-x86_64-pc-linux-gnu/bin/../lib/gcc/nios2-elf/10.1.1/../../../../../H-x86_64-pc-linux-gnu/nios2-elf/lib/mhw-mulx/libc.a(lib_a-fflush.o)
 .text.__sflush_r
                0x000000000000509c      0x228 /opt/intelFPGA/20.1.1/nios2eds/bin/gnu/H-x86_64-pc-linux-gnu/bin/../lib/gcc/nios2-elf/10.1.1/../../../../../H-x86_64-pc-linux-gnu/nios2-elf/lib/mhw-mulx/libc.a(lib_a-fflush.o)
                0x000000000000509c                __sflush_r
 .text._fflush_r
                0x00000000000052c4       0x60 /opt/intelFPGA/20.1.1/nios2eds/bin/gnu/H-x86_64-pc-linux-gnu/bin/../lib/gcc/nios2-elf/10.1.1/../../../../../H-x86_64-pc-linux-gnu/nios2-elf/lib/mhw-mulx/libc.a(lib_a-fflush.o)
                0x00000000000052c4                _fflush_r
 .text.fflush   0x0000000000005324       0x84 /opt/intelFPGA/20.1.1/nios2eds/bin/gnu/H-x86_64-pc-linux-gnu/bin/../lib/gcc/nios2-elf/10.1.1/../../../../../H-x86_64-pc-linux-gnu/nios2-elf/lib/mhw-mulx/libc.a(lib_a-fflush.o)
                0x0000000000005324                fflush
 .text          0x00000000000053a8        0x0 /opt/intelFPGA/20.1.1/nios2eds/bin/gnu/H-x86_64-pc-linux-gnu/bin/../lib/gcc/nios2-elf/10.1.1/../../../../../H-x86_64-pc-linux-gnu/nios2-elf/lib/mhw-mulx/libc.a(lib_a-findfp.o)
 .text.__fp_lock
                0x00000000000053a8        0x8 /opt/intelFPGA/20.1.1/nios2eds/bin/gnu/H-x86_64-pc-linux-gnu/bin/../lib/gcc/nios2-elf/10.1.1/../../../../../H-x86_64-pc-linux-gnu/nios2-elf/lib/mhw-mulx/libc.a(lib_a-findfp.o)
 .text._cleanup_r
                0x00000000000053b0        0xc /opt/intelFPGA/20.1.1/nios2eds/bin/gnu/H-x86_64-pc-linux-gnu/bin/../lib/gcc/nios2-elf/10.1.1/../../../../../H-x86_64-pc-linux-gnu/nios2-elf/lib/mhw-mulx/libc.a(lib_a-findfp.o)
                0x00000000000053b0                _cleanup_r
 .text.__fp_unlock
                0x00000000000053bc        0x8 /opt/intelFPGA/20.1.1/nios2eds/bin/gnu/H-x86_64-pc-linux-gnu/bin/../lib/gcc/nios2-elf/10.1.1/../../../../../H-x86_64-pc-linux-gnu/nios2-elf/lib/mhw-mulx/libc.a(lib_a-findfp.o)
 .text.__sinit.part.0
                0x00000000000053c4      0x168 /opt/intelFPGA/20.1.1/nios2eds/bin/gnu/H-x86_64-pc-linux-gnu/bin/../lib/gcc/nios2-elf/10.1.1/../../../../../H-x86_64-pc-linux-gnu/nios2-elf/lib/mhw-mulx/libc.a(lib_a-findfp.o)
 .text.__sfmoreglue
                0x000000000000552c       0x68 /opt/intelFPGA/20.1.1/nios2eds/bin/gnu/H-x86_64-pc-linux-gnu/bin/../lib/gcc/nios2-elf/10.1.1/../../../../../H-x86_64-pc-linux-gnu/nios2-elf/lib/mhw-mulx/libc.a(lib_a-findfp.o)
                0x000000000000552c                __sfmoreglue
 .text.__sfp    0x0000000000005594      0x154 /opt/intelFPGA/20.1.1/nios2eds/bin/gnu/H-x86_64-pc-linux-gnu/bin/../lib/gcc/nios2-elf/10.1.1/../../../../../H-x86_64-pc-linux-gnu/nios2-elf/lib/mhw-mulx/libc.a(lib_a-findfp.o)
                0x0000000000005594                __sfp
 .text._cleanup
                0x00000000000056e8       0x14 /opt/intelFPGA/20.1.1/nios2eds/bin/gnu/H-x86_64-pc-linux-gnu/bin/../lib/gcc/nios2-elf/10.1.1/../../../../../H-x86_64-pc-linux-gnu/nios2-elf/lib/mhw-mulx/libc.a(lib_a-findfp.o)
                0x00000000000056e8                _cleanup
 .text.__sinit  0x00000000000056fc       0x10 /opt/intelFPGA/20.1.1/nios2eds/bin/gnu/H-x86_64-pc-linux-gnu/bin/../lib/gcc/nios2-elf/10.1.1/../../../../../H-x86_64-pc-linux-gnu/nios2-elf/lib/mhw-mulx/libc.a(lib_a-findfp.o)
                0x00000000000056fc                __sinit
 .text.__sfp_lock_acquire
                0x000000000000570c        0x4 /opt/intelFPGA/20.1.1/nios2eds/bin/gnu/H-x86_64-pc-linux-gnu/bin/../lib/gcc/nios2-elf/10.1.1/../../../../../H-x86_64-pc-linux-gnu/nios2-elf/lib/mhw-mulx/libc.a(lib_a-findfp.o)
                0x000000000000570c                __sfp_lock_acquire
 .text.__sfp_lock_release
                0x0000000000005710        0x4 /opt/intelFPGA/20.1.1/nios2eds/bin/gnu/H-x86_64-pc-linux-gnu/bin/../lib/gcc/nios2-elf/10.1.1/../../../../../H-x86_64-pc-linux-gnu/nios2-elf/lib/mhw-mulx/libc.a(lib_a-findfp.o)
                0x0000000000005710                __sfp_lock_release
 .text.__sinit_lock_acquire
                0x0000000000005714        0x4 /opt/intelFPGA/20.1.1/nios2eds/bin/gnu/H-x86_64-pc-linux-gnu/bin/../lib/gcc/nios2-elf/10.1.1/../../../../../H-x86_64-pc-linux-gnu/nios2-elf/lib/mhw-mulx/libc.a(lib_a-findfp.o)
                0x0000000000005714                __sinit_lock_acquire
 .text.__sinit_lock_release
                0x0000000000005718        0x4 /opt/intelFPGA/20.1.1/nios2eds/bin/gnu/H-x86_64-pc-linux-gnu/bin/../lib/gcc/nios2-elf/10.1.1/../../../../../H-x86_64-pc-linux-gnu/nios2-elf/lib/mhw-mulx/libc.a(lib_a-findfp.o)
                0x0000000000005718                __sinit_lock_release
 .text.__fp_lock_all
                0x000000000000571c       0x14 /opt/intelFPGA/20.1.1/nios2eds/bin/gnu/H-x86_64-pc-linux-gnu/bin/../lib/gcc/nios2-elf/10.1.1/../../../../../H-x86_64-pc-linux-gnu/nios2-elf/lib/mhw-mulx/libc.a(lib_a-findfp.o)
                0x000000000000571c                __fp_lock_all
 .text.__fp_unlock_all
                0x0000000000005730       0x14 /opt/intelFPGA/20.1.1/nios2eds/bin/gnu/H-x86_64-pc-linux-gnu/bin/../lib/gcc/nios2-elf/10.1.1/../../../../../H-x86_64-pc-linux-gnu/nios2-elf/lib/mhw-mulx/libc.a(lib_a-findfp.o)
                0x0000000000005730                __fp_unlock_all
 .text          0x0000000000005744        0x0 /opt/intelFPGA/20.1.1/nios2eds/bin/gnu/H-x86_64-pc-linux-gnu/bin/../lib/gcc/nios2-elf/10.1.1/../../../../../H-x86_64-pc-linux-gnu/nios2-elf/lib/mhw-mulx/libc.a(lib_a-freer.o)
 .text._malloc_trim_r
                0x0000000000005744      0x11c /opt/intelFPGA/20.1.1/nios2eds/bin/gnu/H-x86_64-pc-linux-gnu/bin/../lib/gcc/nios2-elf/10.1.1/../../../../../H-x86_64-pc-linux-gnu/nios2-elf/lib/mhw-mulx/libc.a(lib_a-freer.o)
                0x0000000000005744                _malloc_trim_r
 .text._free_r  0x0000000000005860      0x2fc /opt/intelFPGA/20.1.1/nios2eds/bin/gnu/H-x86_64-pc-linux-gnu/bin/../lib/gcc/nios2-elf/10.1.1/../../../../../H-x86_64-pc-linux-gnu/nios2-elf/lib/mhw-mulx/libc.a(lib_a-freer.o)
                0x0000000000005860                _free_r
 .text          0x0000000000005b5c        0x0 /opt/intelFPGA/20.1.1/nios2eds/bin/gnu/H-x86_64-pc-linux-gnu/bin/../lib/gcc/nios2-elf/10.1.1/../../../../../H-x86_64-pc-linux-gnu/nios2-elf/lib/mhw-mulx/libc.a(lib_a-fwalk.o)
 .text._fwalk   0x0000000000005b5c       0x98 /opt/intelFPGA/20.1.1/nios2eds/bin/gnu/H-x86_64-pc-linux-gnu/bin/../lib/gcc/nios2-elf/10.1.1/../../../../../H-x86_64-pc-linux-gnu/nios2-elf/lib/mhw-mulx/libc.a(lib_a-fwalk.o)
                0x0000000000005b5c                _fwalk
 .text._fwalk_reent
                0x0000000000005bf4       0xa8 /opt/intelFPGA/20.1.1/nios2eds/bin/gnu/H-x86_64-pc-linux-gnu/bin/../lib/gcc/nios2-elf/10.1.1/../../../../../H-x86_64-pc-linux-gnu/nios2-elf/lib/mhw-mulx/libc.a(lib_a-fwalk.o)
                0x0000000000005bf4                _fwalk_reent
 .text          0x0000000000005c9c        0x0 /opt/intelFPGA/20.1.1/nios2eds/bin/gnu/H-x86_64-pc-linux-gnu/bin/../lib/gcc/nios2-elf/10.1.1/../../../../../H-x86_64-pc-linux-gnu/nios2-elf/lib/mhw-mulx/libc.a(lib_a-gettimeofdayr.o)
 .text._gettimeofday_r
                0x0000000000005c9c       0x60 /opt/intelFPGA/20.1.1/nios2eds/bin/gnu/H-x86_64-pc-linux-gnu/bin/../lib/gcc/nios2-elf/10.1.1/../../../../../H-x86_64-pc-linux-gnu/nios2-elf/lib/mhw-mulx/libc.a(lib_a-gettimeofdayr.o)
                0x0000000000005c9c                _gettimeofday_r
 .text          0x0000000000005cfc        0x0 /opt/intelFPGA/20.1.1/nios2eds/bin/gnu/H-x86_64-pc-linux-gnu/bin/../lib/gcc/nios2-elf/10.1.1/../../../../../H-x86_64-pc-linux-gnu/nios2-elf/lib/mhw-mulx/libc.a(lib_a-impure.o)
 .text          0x0000000000005cfc        0x0 /opt/intelFPGA/20.1.1/nios2eds/bin/gnu/H-x86_64-pc-linux-gnu/bin/../lib/gcc/nios2-elf/10.1.1/../../../../../H-x86_64-pc-linux-gnu/nios2-elf/lib/mhw-mulx/libc.a(lib_a-int_errno.o)
 .text          0x0000000000005cfc        0x0 /opt/intelFPGA/20.1.1/nios2eds/bin/gnu/H-x86_64-pc-linux-gnu/bin/../lib/gcc/nios2-elf/10.1.1/../../../../../H-x86_64-pc-linux-gnu/nios2-elf/lib/mhw-mulx/libc.a(lib_a-localeconv.o)
 .text.__localeconv_l
                0x0000000000005cfc        0x8 /opt/intelFPGA/20.1.1/nios2eds/bin/gnu/H-x86_64-pc-linux-gnu/bin/../lib/gcc/nios2-elf/10.1.1/../../../../../H-x86_64-pc-linux-gnu/nios2-elf/lib/mhw-mulx/libc.a(lib_a-localeconv.o)
                0x0000000000005cfc                __localeconv_l
 .text._localeconv_r
                0x0000000000005d04        0xc /opt/intelFPGA/20.1.1/nios2eds/bin/gnu/H-x86_64-pc-linux-gnu/bin/../lib/gcc/nios2-elf/10.1.1/../../../../../H-x86_64-pc-linux-gnu/nios2-elf/lib/mhw-mulx/libc.a(lib_a-localeconv.o)
                0x0000000000005d04                _localeconv_r
 .text.localeconv
                0x0000000000005d10        0xc /opt/intelFPGA/20.1.1/nios2eds/bin/gnu/H-x86_64-pc-linux-gnu/bin/../lib/gcc/nios2-elf/10.1.1/../../../../../H-x86_64-pc-linux-gnu/nios2-elf/lib/mhw-mulx/libc.a(lib_a-localeconv.o)
                0x0000000000005d10                localeconv
 .text          0x0000000000005d1c        0x0 /opt/intelFPGA/20.1.1/nios2eds/bin/gnu/H-x86_64-pc-linux-gnu/bin/../lib/gcc/nios2-elf/10.1.1/../../../../../H-x86_64-pc-linux-gnu/nios2-elf/lib/mhw-mulx/libc.a(lib_a-makebuf.o)
 .text.__smakebuf_r
                0x0000000000005d1c      0x1b0 /opt/intelFPGA/20.1.1/nios2eds/bin/gnu/H-x86_64-pc-linux-gnu/bin/../lib/gcc/nios2-elf/10.1.1/../../../../../H-x86_64-pc-linux-gnu/nios2-elf/lib/mhw-mulx/libc.a(lib_a-makebuf.o)
                0x0000000000005d1c                __smakebuf_r
 .text.__swhatbuf_r
                0x0000000000005ecc       0x98 /opt/intelFPGA/20.1.1/nios2eds/bin/gnu/H-x86_64-pc-linux-gnu/bin/../lib/gcc/nios2-elf/10.1.1/../../../../../H-x86_64-pc-linux-gnu/nios2-elf/lib/mhw-mulx/libc.a(lib_a-makebuf.o)
                0x0000000000005ecc                __swhatbuf_r
 .text          0x0000000000005f64        0x0 /opt/intelFPGA/20.1.1/nios2eds/bin/gnu/H-x86_64-pc-linux-gnu/bin/../lib/gcc/nios2-elf/10.1.1/../../../../../H-x86_64-pc-linux-gnu/nios2-elf/lib/mhw-mulx/libc.a(lib_a-mallocr.o)
 .text._malloc_r
                0x0000000000005f64      0x7e0 /opt/intelFPGA/20.1.1/nios2eds/bin/gnu/H-x86_64-pc-linux-gnu/bin/../lib/gcc/nios2-elf/10.1.1/../../../../../H-x86_64-pc-linux-gnu/nios2-elf/lib/mhw-mulx/libc.a(lib_a-mallocr.o)
                0x0000000000005f64                _malloc_r
 .text          0x0000000000006744        0x0 /opt/intelFPGA/20.1.1/nios2eds/bin/gnu/H-x86_64-pc-linux-gnu/bin/../lib/gcc/nios2-elf/10.1.1/../../../../../H-x86_64-pc-linux-gnu/nios2-elf/lib/mhw-mulx/libc.a(lib_a-memchr.o)
 .text.memchr   0x0000000000006744       0xd0 /opt/intelFPGA/20.1.1/nios2eds/bin/gnu/H-x86_64-pc-linux-gnu/bin/../lib/gcc/nios2-elf/10.1.1/../../../../../H-x86_64-pc-linux-gnu/nios2-elf/lib/mhw-mulx/libc.a(lib_a-memchr.o)
                0x0000000000006744                memchr
 .text          0x0000000000006814        0x0 /opt/intelFPGA/20.1.1/nios2eds/bin/gnu/H-x86_64-pc-linux-gnu/bin/../lib/gcc/nios2-elf/10.1.1/../../../../../H-x86_64-pc-linux-gnu/nios2-elf/lib/mhw-mulx/libc.a(lib_a-memset.o)
 .text.memset   0x0000000000006814       0xf0 /opt/intelFPGA/20.1.1/nios2eds/bin/gnu/H-x86_64-pc-linux-gnu/bin/../lib/gcc/nios2-elf/10.1.1/../../../../../H-x86_64-pc-linux-gnu/nios2-elf/lib/mhw-mulx/libc.a(lib_a-memset.o)
                0x0000000000006814                memset
 .text          0x0000000000006904        0x0 /opt/intelFPGA/20.1.1/nios2eds/bin/gnu/H-x86_64-pc-linux-gnu/bin/../lib/gcc/nios2-elf/10.1.1/../../../../../H-x86_64-pc-linux-gnu/nios2-elf/lib/mhw-mulx/libc.a(lib_a-mprec.o)
 .text._Balloc  0x0000000000006904       0xa4 /opt/intelFPGA/20.1.1/nios2eds/bin/gnu/H-x86_64-pc-linux-gnu/bin/../lib/gcc/nios2-elf/10.1.1/../../../../../H-x86_64-pc-linux-gnu/nios2-elf/lib/mhw-mulx/libc.a(lib_a-mprec.o)
                0x0000000000006904                _Balloc
 .text._Bfree   0x00000000000069a8       0x24 /opt/intelFPGA/20.1.1/nios2eds/bin/gnu/H-x86_64-pc-linux-gnu/bin/../lib/gcc/nios2-elf/10.1.1/../../../../../H-x86_64-pc-linux-gnu/nios2-elf/lib/mhw-mulx/libc.a(lib_a-mprec.o)
                0x00000000000069a8                _Bfree
 .text.__multadd
                0x00000000000069cc      0x138 /opt/intelFPGA/20.1.1/nios2eds/bin/gnu/H-x86_64-pc-linux-gnu/bin/../lib/gcc/nios2-elf/10.1.1/../../../../../H-x86_64-pc-linux-gnu/nios2-elf/lib/mhw-mulx/libc.a(lib_a-mprec.o)
                0x00000000000069cc                __multadd
 .text.__s2b    0x0000000000006b04      0x138 /opt/intelFPGA/20.1.1/nios2eds/bin/gnu/H-x86_64-pc-linux-gnu/bin/../lib/gcc/nios2-elf/10.1.1/../../../../../H-x86_64-pc-linux-gnu/nios2-elf/lib/mhw-mulx/libc.a(lib_a-mprec.o)
                0x0000000000006b04                __s2b
 .text.__hi0bits
                0x0000000000006c3c       0x64 /opt/intelFPGA/20.1.1/nios2eds/bin/gnu/H-x86_64-pc-linux-gnu/bin/../lib/gcc/nios2-elf/10.1.1/../../../../../H-x86_64-pc-linux-gnu/nios2-elf/lib/mhw-mulx/libc.a(lib_a-mprec.o)
                0x0000000000006c3c                __hi0bits
 .text.__lo0bits
                0x0000000000006ca0       0xb0 /opt/intelFPGA/20.1.1/nios2eds/bin/gnu/H-x86_64-pc-linux-gnu/bin/../lib/gcc/nios2-elf/10.1.1/../../../../../H-x86_64-pc-linux-gnu/nios2-elf/lib/mhw-mulx/libc.a(lib_a-mprec.o)
                0x0000000000006ca0                __lo0bits
 .text.__i2b    0x0000000000006d50       0xb0 /opt/intelFPGA/20.1.1/nios2eds/bin/gnu/H-x86_64-pc-linux-gnu/bin/../lib/gcc/nios2-elf/10.1.1/../../../../../H-x86_64-pc-linux-gnu/nios2-elf/lib/mhw-mulx/libc.a(lib_a-mprec.o)
                0x0000000000006d50                __i2b
 .text.__multiply
                0x0000000000006e00      0x254 /opt/intelFPGA/20.1.1/nios2eds/bin/gnu/H-x86_64-pc-linux-gnu/bin/../lib/gcc/nios2-elf/10.1.1/../../../../../H-x86_64-pc-linux-gnu/nios2-elf/lib/mhw-mulx/libc.a(lib_a-mprec.o)
                0x0000000000006e00                __multiply
 .text.__pow5mult
                0x0000000000007054      0x148 /opt/intelFPGA/20.1.1/nios2eds/bin/gnu/H-x86_64-pc-linux-gnu/bin/../lib/gcc/nios2-elf/10.1.1/../../../../../H-x86_64-pc-linux-gnu/nios2-elf/lib/mhw-mulx/libc.a(lib_a-mprec.o)
                0x0000000000007054                __pow5mult
 .text.__lshift
                0x000000000000719c      0x188 /opt/intelFPGA/20.1.1/nios2eds/bin/gnu/H-x86_64-pc-linux-gnu/bin/../lib/gcc/nios2-elf/10.1.1/../../../../../H-x86_64-pc-linux-gnu/nios2-elf/lib/mhw-mulx/libc.a(lib_a-mprec.o)
                0x000000000000719c                __lshift
 .text.__mcmp   0x0000000000007324       0x58 /opt/intelFPGA/20.1.1/nios2eds/bin/gnu/H-x86_64-pc-linux-gnu/bin/../lib/gcc/nios2-elf/10.1.1/../../../../../H-x86_64-pc-linux-gnu/nios2-elf/lib/mhw-mulx/libc.a(lib_a-mprec.o)
                0x0000000000007324                __mcmp
 .text.__mdiff  0x000000000000737c      0x22c /opt/intelFPGA/20.1.1/nios2eds/bin/gnu/H-x86_64-pc-linux-gnu/bin/../lib/gcc/nios2-elf/10.1.1/../../../../../H-x86_64-pc-linux-gnu/nios2-elf/lib/mhw-mulx/libc.a(lib_a-mprec.o)
                0x000000000000737c                __mdiff
 .text.__ulp    0x00000000000075a8       0x5c /opt/intelFPGA/20.1.1/nios2eds/bin/gnu/H-x86_64-pc-linux-gnu/bin/../lib/gcc/nios2-elf/10.1.1/../../../../../H-x86_64-pc-linux-gnu/nios2-elf/lib/mhw-mulx/libc.a(lib_a-mprec.o)
                0x00000000000075a8                __ulp
 .text.__b2d    0x0000000000007604      0x108 /opt/intelFPGA/20.1.1/nios2eds/bin/gnu/H-x86_64-pc-linux-gnu/bin/../lib/gcc/nios2-elf/10.1.1/../../../../../H-x86_64-pc-linux-gnu/nios2-elf/lib/mhw-mulx/libc.a(lib_a-mprec.o)
                0x0000000000007604                __b2d
 .text.__d2b    0x000000000000770c      0x164 /opt/intelFPGA/20.1.1/nios2eds/bin/gnu/H-x86_64-pc-linux-gnu/bin/../lib/gcc/nios2-elf/10.1.1/../../../../../H-x86_64-pc-linux-gnu/nios2-elf/lib/mhw-mulx/libc.a(lib_a-mprec.o)
                0x000000000000770c                __d2b
 .text.__ratio  0x0000000000007870       0xa8 /opt/intelFPGA/20.1.1/nios2eds/bin/gnu/H-x86_64-pc-linux-gnu/bin/../lib/gcc/nios2-elf/10.1.1/../../../../../H-x86_64-pc-linux-gnu/nios2-elf/lib/mhw-mulx/libc.a(lib_a-mprec.o)
                0x0000000000007870                __ratio
 .text._mprec_log10
                0x0000000000007918       0x70 /opt/intelFPGA/20.1.1/nios2eds/bin/gnu/H-x86_64-pc-linux-gnu/bin/../lib/gcc/nios2-elf/10.1.1/../../../../../H-x86_64-pc-linux-gnu/nios2-elf/lib/mhw-mulx/libc.a(lib_a-mprec.o)
                0x0000000000007918                _mprec_log10
 .text.__copybits
                0x0000000000007988       0x7c /opt/intelFPGA/20.1.1/nios2eds/bin/gnu/H-x86_64-pc-linux-gnu/bin/../lib/gcc/nios2-elf/10.1.1/../../../../../H-x86_64-pc-linux-gnu/nios2-elf/lib/mhw-mulx/libc.a(lib_a-mprec.o)
                0x0000000000007988                __copybits
 .text.__any_on
                0x0000000000007a04       0x60 /opt/intelFPGA/20.1.1/nios2eds/bin/gnu/H-x86_64-pc-linux-gnu/bin/../lib/gcc/nios2-elf/10.1.1/../../../../../H-x86_64-pc-linux-gnu/nios2-elf/lib/mhw-mulx/libc.a(lib_a-mprec.o)
                0x0000000000007a04                __any_on
 .text          0x0000000000007a64        0x0 /opt/intelFPGA/20.1.1/nios2eds/bin/gnu/H-x86_64-pc-linux-gnu/bin/../lib/gcc/nios2-elf/10.1.1/../../../../../H-x86_64-pc-linux-gnu/nios2-elf/lib/mhw-mulx/libc.a(lib_a-sbrkr.o)
 .text._sbrk_r  0x0000000000007a64       0x58 /opt/intelFPGA/20.1.1/nios2eds/bin/gnu/H-x86_64-pc-linux-gnu/bin/../lib/gcc/nios2-elf/10.1.1/../../../../../H-x86_64-pc-linux-gnu/nios2-elf/lib/mhw-mulx/libc.a(lib_a-sbrkr.o)
                0x0000000000007a64                _sbrk_r
 .text          0x0000000000007abc        0x0 /opt/intelFPGA/20.1.1/nios2eds/bin/gnu/H-x86_64-pc-linux-gnu/bin/../lib/gcc/nios2-elf/10.1.1/../../../../../H-x86_64-pc-linux-gnu/nios2-elf/lib/mhw-mulx/libc.a(lib_a-stdio.o)
 .text.__sread  0x0000000000007abc       0x54 /opt/intelFPGA/20.1.1/nios2eds/bin/gnu/H-x86_64-pc-linux-gnu/bin/../lib/gcc/nios2-elf/10.1.1/../../../../../H-x86_64-pc-linux-gnu/nios2-elf/lib/mhw-mulx/libc.a(lib_a-stdio.o)
                0x0000000000007abc                __sread
 .text.__seofread
                0x0000000000007b10        0x8 /opt/intelFPGA/20.1.1/nios2eds/bin/gnu/H-x86_64-pc-linux-gnu/bin/../lib/gcc/nios2-elf/10.1.1/../../../../../H-x86_64-pc-linux-gnu/nios2-elf/lib/mhw-mulx/libc.a(lib_a-stdio.o)
                0x0000000000007b10                __seofread
 .text.__swrite
                0x0000000000007b18       0x80 /opt/intelFPGA/20.1.1/nios2eds/bin/gnu/H-x86_64-pc-linux-gnu/bin/../lib/gcc/nios2-elf/10.1.1/../../../../../H-x86_64-pc-linux-gnu/nios2-elf/lib/mhw-mulx/libc.a(lib_a-stdio.o)
                0x0000000000007b18                __swrite
 .text.__sseek  0x0000000000007b98       0x5c /opt/intelFPGA/20.1.1/nios2eds/bin/gnu/H-x86_64-pc-linux-gnu/bin/../lib/gcc/nios2-elf/10.1.1/../../../../../H-x86_64-pc-linux-gnu/nios2-elf/lib/mhw-mulx/libc.a(lib_a-stdio.o)
                0x0000000000007b98                __sseek
 .text.__sclose
                0x0000000000007bf4        0x8 /opt/intelFPGA/20.1.1/nios2eds/bin/gnu/H-x86_64-pc-linux-gnu/bin/../lib/gcc/nios2-elf/10.1.1/../../../../../H-x86_64-pc-linux-gnu/nios2-elf/lib/mhw-mulx/libc.a(lib_a-stdio.o)
                0x0000000000007bf4                __sclose
 .text          0x0000000000007bfc        0x0 /opt/intelFPGA/20.1.1/nios2eds/bin/gnu/H-x86_64-pc-linux-gnu/bin/../lib/gcc/nios2-elf/10.1.1/../../../../../H-x86_64-pc-linux-gnu/nios2-elf/lib/mhw-mulx/libc.a(lib_a-strlen.o)
 .text.strlen   0x0000000000007bfc       0x98 /opt/intelFPGA/20.1.1/nios2eds/bin/gnu/H-x86_64-pc-linux-gnu/bin/../lib/gcc/nios2-elf/10.1.1/../../../../../H-x86_64-pc-linux-gnu/nios2-elf/lib/mhw-mulx/libc.a(lib_a-strlen.o)
                0x0000000000007bfc                strlen
 .text          0x0000000000007c94        0x0 /opt/intelFPGA/20.1.1/nios2eds/bin/gnu/H-x86_64-pc-linux-gnu/bin/../lib/gcc/nios2-elf/10.1.1/../../../../../H-x86_64-pc-linux-gnu/nios2-elf/lib/mhw-mulx/libc.a(lib_a-vfiprintf.o)
 .text.__sprint_r.part.0
                0x0000000000007c94       0xf4 /opt/intelFPGA/20.1.1/nios2eds/bin/gnu/H-x86_64-pc-linux-gnu/bin/../lib/gcc/nios2-elf/10.1.1/../../../../../H-x86_64-pc-linux-gnu/nios2-elf/lib/mhw-mulx/libc.a(lib_a-vfiprintf.o)
 .text.__sprint_r
                0x0000000000007d88       0x18 /opt/intelFPGA/20.1.1/nios2eds/bin/gnu/H-x86_64-pc-linux-gnu/bin/../lib/gcc/nios2-elf/10.1.1/../../../../../H-x86_64-pc-linux-gnu/nios2-elf/lib/mhw-mulx/libc.a(lib_a-vfiprintf.o)
                0x0000000000007d88                __sprint_r
 .text.___vfiprintf_internal_r
                0x0000000000007da0     0x1334 /opt/intelFPGA/20.1.1/nios2eds/bin/gnu/H-x86_64-pc-linux-gnu/bin/../lib/gcc/nios2-elf/10.1.1/../../../../../H-x86_64-pc-linux-gnu/nios2-elf/lib/mhw-mulx/libc.a(lib_a-vfiprintf.o)
                0x0000000000007da0                ___vfiprintf_internal_r
 .text.__vfiprintf_internal
                0x00000000000090d4       0x1c /opt/intelFPGA/20.1.1/nios2eds/bin/gnu/H-x86_64-pc-linux-gnu/bin/../lib/gcc/nios2-elf/10.1.1/../../../../../H-x86_64-pc-linux-gnu/nios2-elf/lib/mhw-mulx/libc.a(lib_a-vfiprintf.o)
                0x00000000000090d4                __vfiprintf_internal
 .text.__sbprintf
                0x00000000000090f0       0xc0 /opt/intelFPGA/20.1.1/nios2eds/bin/gnu/H-x86_64-pc-linux-gnu/bin/../lib/gcc/nios2-elf/10.1.1/../../../../../H-x86_64-pc-linux-gnu/nios2-elf/lib/mhw-mulx/libc.a(lib_a-vfiprintf.o)
 .text          0x00000000000091b0        0x0 /opt/intelFPGA/20.1.1/nios2eds/bin/gnu/H-x86_64-pc-linux-gnu/bin/../lib/gcc/nios2-elf/10.1.1/../../../../../H-x86_64-pc-linux-gnu/nios2-elf/lib/mhw-mulx/libc.a(lib_a-writer.o)
 .text._write_r
                0x00000000000091b0       0x64 /opt/intelFPGA/20.1.1/nios2eds/bin/gnu/H-x86_64-pc-linux-gnu/bin/../lib/gcc/nios2-elf/10.1.1/../../../../../H-x86_64-pc-linux-gnu/nios2-elf/lib/mhw-mulx/libc.a(lib_a-writer.o)
                0x00000000000091b0                _write_r
 .text          0x0000000000009214        0x0 /opt/intelFPGA/20.1.1/nios2eds/bin/gnu/H-x86_64-pc-linux-gnu/bin/../lib/gcc/nios2-elf/10.1.1/../../../../../H-x86_64-pc-linux-gnu/nios2-elf/lib/mhw-mulx/libc.a(closer.o)
 .text._close_r
                0x0000000000009214       0x58 /opt/intelFPGA/20.1.1/nios2eds/bin/gnu/H-x86_64-pc-linux-gnu/bin/../lib/gcc/nios2-elf/10.1.1/../../../../../H-x86_64-pc-linux-gnu/nios2-elf/lib/mhw-mulx/libc.a(closer.o)
                0x0000000000009214                _close_r
 .text          0x000000000000926c        0x0 /opt/intelFPGA/20.1.1/nios2eds/bin/gnu/H-x86_64-pc-linux-gnu/bin/../lib/gcc/nios2-elf/10.1.1/../../../../../H-x86_64-pc-linux-gnu/nios2-elf/lib/mhw-mulx/libc.a(lib_a-assert.o)
 .text.__assert_func
                0x000000000000926c       0x64 /opt/intelFPGA/20.1.1/nios2eds/bin/gnu/H-x86_64-pc-linux-gnu/bin/../lib/gcc/nios2-elf/10.1.1/../../../../../H-x86_64-pc-linux-gnu/nios2-elf/lib/mhw-mulx/libc.a(lib_a-assert.o)
                0x000000000000926c                __assert_func
 .text.__assert
                0x00000000000092d0       0x14 /opt/intelFPGA/20.1.1/nios2eds/bin/gnu/H-x86_64-pc-linux-gnu/bin/../lib/gcc/nios2-elf/10.1.1/../../../../../H-x86_64-pc-linux-gnu/nios2-elf/lib/mhw-mulx/libc.a(lib_a-assert.o)
                0x00000000000092d0                __assert
 .text          0x00000000000092e4        0x0 /opt/intelFPGA/20.1.1/nios2eds/bin/gnu/H-x86_64-pc-linux-gnu/bin/../lib/gcc/nios2-elf/10.1.1/../../../../../H-x86_64-pc-linux-gnu/nios2-elf/lib/mhw-mulx/libc.a(lib_a-callocr.o)
 .text._calloc_r
                0x00000000000092e4       0xb4 /opt/intelFPGA/20.1.1/nios2eds/bin/gnu/H-x86_64-pc-linux-gnu/bin/../lib/gcc/nios2-elf/10.1.1/../../../../../H-x86_64-pc-linux-gnu/nios2-elf/lib/mhw-mulx/libc.a(lib_a-callocr.o)
                0x00000000000092e4                _calloc_r
 .text          0x0000000000009398        0x0 /opt/intelFPGA/20.1.1/nios2eds/bin/gnu/H-x86_64-pc-linux-gnu/bin/../lib/gcc/nios2-elf/10.1.1/../../../../../H-x86_64-pc-linux-gnu/nios2-elf/lib/mhw-mulx/libc.a(lib_a-fclose.o)
 .text._fclose_r.part.0
                0x0000000000009398       0xc0 /opt/intelFPGA/20.1.1/nios2eds/bin/gnu/H-x86_64-pc-linux-gnu/bin/../lib/gcc/nios2-elf/10.1.1/../../../../../H-x86_64-pc-linux-gnu/nios2-elf/lib/mhw-mulx/libc.a(lib_a-fclose.o)
 .text._fclose_r
                0x0000000000009458       0x70 /opt/intelFPGA/20.1.1/nios2eds/bin/gnu/H-x86_64-pc-linux-gnu/bin/../lib/gcc/nios2-elf/10.1.1/../../../../../H-x86_64-pc-linux-gnu/nios2-elf/lib/mhw-mulx/libc.a(lib_a-fclose.o)
                0x0000000000009458                _fclose_r
 .text.fclose   0x00000000000094c8       0x70 /opt/intelFPGA/20.1.1/nios2eds/bin/gnu/H-x86_64-pc-linux-gnu/bin/../lib/gcc/nios2-elf/10.1.1/../../../../../H-x86_64-pc-linux-gnu/nios2-elf/lib/mhw-mulx/libc.a(lib_a-fclose.o)
                0x00000000000094c8                fclose
 .text          0x0000000000009538        0x0 /opt/intelFPGA/20.1.1/nios2eds/bin/gnu/H-x86_64-pc-linux-gnu/bin/../lib/gcc/nios2-elf/10.1.1/../../../../../H-x86_64-pc-linux-gnu/nios2-elf/lib/mhw-mulx/libc.a(lib_a-fiprintf.o)
 .text._fiprintf_r
                0x0000000000009538       0x20 /opt/intelFPGA/20.1.1/nios2eds/bin/gnu/H-x86_64-pc-linux-gnu/bin/../lib/gcc/nios2-elf/10.1.1/../../../../../H-x86_64-pc-linux-gnu/nios2-elf/lib/mhw-mulx/libc.a(lib_a-fiprintf.o)
                0x0000000000009538                _fiprintf_r
 .text.fiprintf
                0x0000000000009558       0x38 /opt/intelFPGA/20.1.1/nios2eds/bin/gnu/H-x86_64-pc-linux-gnu/bin/../lib/gcc/nios2-elf/10.1.1/../../../../../H-x86_64-pc-linux-gnu/nios2-elf/lib/mhw-mulx/libc.a(lib_a-fiprintf.o)
                0x0000000000009558                fiprintf
 .text          0x0000000000009590        0x0 /opt/intelFPGA/20.1.1/nios2eds/bin/gnu/H-x86_64-pc-linux-gnu/bin/../lib/gcc/nios2-elf/10.1.1/../../../../../H-x86_64-pc-linux-gnu/nios2-elf/lib/mhw-mulx/libc.a(lib_a-fputwc.o)
 .text.__fputwc
                0x0000000000009590      0x164 /opt/intelFPGA/20.1.1/nios2eds/bin/gnu/H-x86_64-pc-linux-gnu/bin/../lib/gcc/nios2-elf/10.1.1/../../../../../H-x86_64-pc-linux-gnu/nios2-elf/lib/mhw-mulx/libc.a(lib_a-fputwc.o)
                0x0000000000009590                __fputwc
 .text._fputwc_r
                0x00000000000096f4       0x24 /opt/intelFPGA/20.1.1/nios2eds/bin/gnu/H-x86_64-pc-linux-gnu/bin/../lib/gcc/nios2-elf/10.1.1/../../../../../H-x86_64-pc-linux-gnu/nios2-elf/lib/mhw-mulx/libc.a(lib_a-fputwc.o)
                0x00000000000096f4                _fputwc_r
 .text.fputwc   0x0000000000009718       0x78 /opt/intelFPGA/20.1.1/nios2eds/bin/gnu/H-x86_64-pc-linux-gnu/bin/../lib/gcc/nios2-elf/10.1.1/../../../../../H-x86_64-pc-linux-gnu/nios2-elf/lib/mhw-mulx/libc.a(lib_a-fputwc.o)
                0x0000000000009718                fputwc
 .text          0x0000000000009790        0x0 /opt/intelFPGA/20.1.1/nios2eds/bin/gnu/H-x86_64-pc-linux-gnu/bin/../lib/gcc/nios2-elf/10.1.1/../../../../../H-x86_64-pc-linux-gnu/nios2-elf/lib/mhw-mulx/libc.a(lib_a-fstatr.o)
 .text._fstat_r
                0x0000000000009790       0x60 /opt/intelFPGA/20.1.1/nios2eds/bin/gnu/H-x86_64-pc-linux-gnu/bin/../lib/gcc/nios2-elf/10.1.1/../../../../../H-x86_64-pc-linux-gnu/nios2-elf/lib/mhw-mulx/libc.a(lib_a-fstatr.o)
                0x0000000000009790                _fstat_r
 .text          0x00000000000097f0        0x0 /opt/intelFPGA/20.1.1/nios2eds/bin/gnu/H-x86_64-pc-linux-gnu/bin/../lib/gcc/nios2-elf/10.1.1/../../../../../H-x86_64-pc-linux-gnu/nios2-elf/lib/mhw-mulx/libc.a(lib_a-fvwrite.o)
 .text.__sfvwrite_r
                0x00000000000097f0      0x4b8 /opt/intelFPGA/20.1.1/nios2eds/bin/gnu/H-x86_64-pc-linux-gnu/bin/../lib/gcc/nios2-elf/10.1.1/../../../../../H-x86_64-pc-linux-gnu/nios2-elf/lib/mhw-mulx/libc.a(lib_a-fvwrite.o)
                0x00000000000097f0                __sfvwrite_r
 .text          0x0000000000009ca8        0x0 /opt/intelFPGA/20.1.1/nios2eds/bin/gnu/H-x86_64-pc-linux-gnu/bin/../lib/gcc/nios2-elf/10.1.1/../../../../../H-x86_64-pc-linux-gnu/nios2-elf/lib/mhw-mulx/libc.a(lib_a-isattyr.o)
 .text._isatty_r
                0x0000000000009ca8       0x58 /opt/intelFPGA/20.1.1/nios2eds/bin/gnu/H-x86_64-pc-linux-gnu/bin/../lib/gcc/nios2-elf/10.1.1/../../../../../H-x86_64-pc-linux-gnu/nios2-elf/lib/mhw-mulx/libc.a(lib_a-isattyr.o)
                0x0000000000009ca8                _isatty_r
 .text          0x0000000000009d00        0x0 /opt/intelFPGA/20.1.1/nios2eds/bin/gnu/H-x86_64-pc-linux-gnu/bin/../lib/gcc/nios2-elf/10.1.1/../../../../../H-x86_64-pc-linux-gnu/nios2-elf/lib/mhw-mulx/libc.a(lib_a-locale.o)
 .text._setlocale_r
                0x0000000000009d00       0x74 /opt/intelFPGA/20.1.1/nios2eds/bin/gnu/H-x86_64-pc-linux-gnu/bin/../lib/gcc/nios2-elf/10.1.1/../../../../../H-x86_64-pc-linux-gnu/nios2-elf/lib/mhw-mulx/libc.a(lib_a-locale.o)
                0x0000000000009d00                _setlocale_r
 .text.__locale_mb_cur_max
                0x0000000000009d74        0xc /opt/intelFPGA/20.1.1/nios2eds/bin/gnu/H-x86_64-pc-linux-gnu/bin/../lib/gcc/nios2-elf/10.1.1/../../../../../H-x86_64-pc-linux-gnu/nios2-elf/lib/mhw-mulx/libc.a(lib_a-locale.o)
                0x0000000000009d74                __locale_mb_cur_max
 .text.setlocale
                0x0000000000009d80       0x74 /opt/intelFPGA/20.1.1/nios2eds/bin/gnu/H-x86_64-pc-linux-gnu/bin/../lib/gcc/nios2-elf/10.1.1/../../../../../H-x86_64-pc-linux-gnu/nios2-elf/lib/mhw-mulx/libc.a(lib_a-locale.o)
                0x0000000000009d80                setlocale
 .text          0x0000000000009df4        0x0 /opt/intelFPGA/20.1.1/nios2eds/bin/gnu/H-x86_64-pc-linux-gnu/bin/../lib/gcc/nios2-elf/10.1.1/../../../../../H-x86_64-pc-linux-gnu/nios2-elf/lib/mhw-mulx/libc.a(lib_a-lseekr.o)
 .text._lseek_r
                0x0000000000009df4       0x64 /opt/intelFPGA/20.1.1/nios2eds/bin/gnu/H-x86_64-pc-linux-gnu/bin/../lib/gcc/nios2-elf/10.1.1/../../../../../H-x86_64-pc-linux-gnu/nios2-elf/lib/mhw-mulx/libc.a(lib_a-lseekr.o)
                0x0000000000009df4                _lseek_r
 .text          0x0000000000009e58        0x0 /opt/intelFPGA/20.1.1/nios2eds/bin/gnu/H-x86_64-pc-linux-gnu/bin/../lib/gcc/nios2-elf/10.1.1/../../../../../H-x86_64-pc-linux-gnu/nios2-elf/lib/mhw-mulx/libc.a(lib_a-mbtowc_r.o)
 .text._mbtowc_r
                0x0000000000009e58        0xc /opt/intelFPGA/20.1.1/nios2eds/bin/gnu/H-x86_64-pc-linux-gnu/bin/../lib/gcc/nios2-elf/10.1.1/../../../../../H-x86_64-pc-linux-gnu/nios2-elf/lib/mhw-mulx/libc.a(lib_a-mbtowc_r.o)
                0x0000000000009e58                _mbtowc_r
 .text.__ascii_mbtowc
                0x0000000000009e64       0x44 /opt/intelFPGA/20.1.1/nios2eds/bin/gnu/H-x86_64-pc-linux-gnu/bin/../lib/gcc/nios2-elf/10.1.1/../../../../../H-x86_64-pc-linux-gnu/nios2-elf/lib/mhw-mulx/libc.a(lib_a-mbtowc_r.o)
                0x0000000000009e64                __ascii_mbtowc
 .text          0x0000000000009ea8        0x0 /opt/intelFPGA/20.1.1/nios2eds/bin/gnu/H-x86_64-pc-linux-gnu/bin/../lib/gcc/nios2-elf/10.1.1/../../../../../H-x86_64-pc-linux-gnu/nios2-elf/lib/mhw-mulx/libc.a(lib_a-memmove.o)
 .text.memmove  0x0000000000009ea8      0x12c /opt/intelFPGA/20.1.1/nios2eds/bin/gnu/H-x86_64-pc-linux-gnu/bin/../lib/gcc/nios2-elf/10.1.1/../../../../../H-x86_64-pc-linux-gnu/nios2-elf/lib/mhw-mulx/libc.a(lib_a-memmove.o)
                0x0000000000009ea8                memmove
 .text          0x0000000000009fd4        0x0 /opt/intelFPGA/20.1.1/nios2eds/bin/gnu/H-x86_64-pc-linux-gnu/bin/../lib/gcc/nios2-elf/10.1.1/../../../../../H-x86_64-pc-linux-gnu/nios2-elf/lib/mhw-mulx/libc.a(lib_a-readr.o)
 .text._read_r  0x0000000000009fd4       0x64 /opt/intelFPGA/20.1.1/nios2eds/bin/gnu/H-x86_64-pc-linux-gnu/bin/../lib/gcc/nios2-elf/10.1.1/../../../../../H-x86_64-pc-linux-gnu/nios2-elf/lib/mhw-mulx/libc.a(lib_a-readr.o)
                0x0000000000009fd4                _read_r
 .text          0x000000000000a038        0x0 /opt/intelFPGA/20.1.1/nios2eds/bin/gnu/H-x86_64-pc-linux-gnu/bin/../lib/gcc/nios2-elf/10.1.1/../../../../../H-x86_64-pc-linux-gnu/nios2-elf/lib/mhw-mulx/libc.a(lib_a-reallocr.o)
 .text._realloc_r
                0x000000000000a038      0x564 /opt/intelFPGA/20.1.1/nios2eds/bin/gnu/H-x86_64-pc-linux-gnu/bin/../lib/gcc/nios2-elf/10.1.1/../../../../../H-x86_64-pc-linux-gnu/nios2-elf/lib/mhw-mulx/libc.a(lib_a-reallocr.o)
                0x000000000000a038                _realloc_r
 .text          0x000000000000a59c        0x0 /opt/intelFPGA/20.1.1/nios2eds/bin/gnu/H-x86_64-pc-linux-gnu/bin/../lib/gcc/nios2-elf/10.1.1/../../../../../H-x86_64-pc-linux-gnu/nios2-elf/lib/mhw-mulx/libc.a(lib_a-strcmp.o)
 .text.strcmp   0x000000000000a59c       0xb8 /opt/intelFPGA/20.1.1/nios2eds/bin/gnu/H-x86_64-pc-linux-gnu/bin/../lib/gcc/nios2-elf/10.1.1/../../../../../H-x86_64-pc-linux-gnu/nios2-elf/lib/mhw-mulx/libc.a(lib_a-strcmp.o)
                0x000000000000a59c                strcmp
 .text          0x000000000000a654        0x0 /opt/intelFPGA/20.1.1/nios2eds/bin/gnu/H-x86_64-pc-linux-gnu/bin/../lib/gcc/nios2-elf/10.1.1/../../../../../H-x86_64-pc-linux-gnu/nios2-elf/lib/mhw-mulx/libc.a(lib_a-vfiprintfr_1.o)
 .text._vfiprintf_r
                0x000000000000a654        0x4 /opt/intelFPGA/20.1.1/nios2eds/bin/gnu/H-x86_64-pc-linux-gnu/bin/../lib/gcc/nios2-elf/10.1.1/../../../../../H-x86_64-pc-linux-gnu/nios2-elf/lib/mhw-mulx/libc.a(lib_a-vfiprintfr_1.o)
                0x000000000000a654                _vfiprintf_r
 .text          0x000000000000a658        0x0 /opt/intelFPGA/20.1.1/nios2eds/bin/gnu/H-x86_64-pc-linux-gnu/bin/../lib/gcc/nios2-elf/10.1.1/../../../../../H-x86_64-pc-linux-gnu/nios2-elf/lib/mhw-mulx/libc.a(lib_a-wbuf.o)
 .text.__swbuf_r
                0x000000000000a658      0x148 /opt/intelFPGA/20.1.1/nios2eds/bin/gnu/H-x86_64-pc-linux-gnu/bin/../lib/gcc/nios2-elf/10.1.1/../../../../../H-x86_64-pc-linux-gnu/nios2-elf/lib/mhw-mulx/libc.a(lib_a-wbuf.o)
                0x000000000000a658                __swbuf_r
 .text.__swbuf  0x000000000000a7a0       0x18 /opt/intelFPGA/20.1.1/nios2eds/bin/gnu/H-x86_64-pc-linux-gnu/bin/../lib/gcc/nios2-elf/10.1.1/../../../../../H-x86_64-pc-linux-gnu/nios2-elf/lib/mhw-mulx/libc.a(lib_a-wbuf.o)
                0x000000000000a7a0                __swbuf
 .text          0x000000000000a7b8        0x0 /opt/intelFPGA/20.1.1/nios2eds/bin/gnu/H-x86_64-pc-linux-gnu/bin/../lib/gcc/nios2-elf/10.1.1/../../../../../H-x86_64-pc-linux-gnu/nios2-elf/lib/mhw-mulx/libc.a(lib_a-wcrtomb.o)
 .text._wcrtomb_r
                0x000000000000a7b8       0x6c /opt/intelFPGA/20.1.1/nios2eds/bin/gnu/H-x86_64-pc-linux-gnu/bin/../lib/gcc/nios2-elf/10.1.1/../../../../../H-x86_64-pc-linux-gnu/nios2-elf/lib/mhw-mulx/libc.a(lib_a-wcrtomb.o)
                0x000000000000a7b8                _wcrtomb_r
 .text.wcrtomb  0x000000000000a824       0x88 /opt/intelFPGA/20.1.1/nios2eds/bin/gnu/H-x86_64-pc-linux-gnu/bin/../lib/gcc/nios2-elf/10.1.1/../../../../../H-x86_64-pc-linux-gnu/nios2-elf/lib/mhw-mulx/libc.a(lib_a-wcrtomb.o)
                0x000000000000a824                wcrtomb
 .text          0x000000000000a8ac        0x0 /opt/intelFPGA/20.1.1/nios2eds/bin/gnu/H-x86_64-pc-linux-gnu/bin/../lib/gcc/nios2-elf/10.1.1/../../../../../H-x86_64-pc-linux-gnu/nios2-elf/lib/mhw-mulx/libc.a(lib_a-wctomb_r.o)
 .text._wctomb_r
                0x000000000000a8ac        0xc /opt/intelFPGA/20.1.1/nios2eds/bin/gnu/H-x86_64-pc-linux-gnu/bin/../lib/gcc/nios2-elf/10.1.1/../../../../../H-x86_64-pc-linux-gnu/nios2-elf/lib/mhw-mulx/libc.a(lib_a-wctomb_r.o)
                0x000000000000a8ac                _wctomb_r
 .text.__ascii_wctomb
                0x000000000000a8b8       0x30 /opt/intelFPGA/20.1.1/nios2eds/bin/gnu/H-x86_64-pc-linux-gnu/bin/../lib/gcc/nios2-elf/10.1.1/../../../../../H-x86_64-pc-linux-gnu/nios2-elf/lib/mhw-mulx/libc.a(lib_a-wctomb_r.o)
                0x000000000000a8b8                __ascii_wctomb
 .text          0x000000000000a8e8        0x0 /opt/intelFPGA/20.1.1/nios2eds/bin/gnu/H-x86_64-pc-linux-gnu/bin/../lib/gcc/nios2-elf/10.1.1/../../../../../H-x86_64-pc-linux-gnu/nios2-elf/lib/mhw-mulx/libc.a(lib_a-abort.o)
 .text.unlikely.abort
                0x000000000000a8e8       0x18 /opt/intelFPGA/20.1.1/nios2eds/bin/gnu/H-x86_64-pc-linux-gnu/bin/../lib/gcc/nios2-elf/10.1.1/../../../../../H-x86_64-pc-linux-gnu/nios2-elf/lib/mhw-mulx/libc.a(lib_a-abort.o)
                0x000000000000a8e8                abort
 .text          0x000000000000a900        0x0 /opt/intelFPGA/20.1.1/nios2eds/bin/gnu/H-x86_64-pc-linux-gnu/bin/../lib/gcc/nios2-elf/10.1.1/../../../../../H-x86_64-pc-linux-gnu/nios2-elf/lib/mhw-mulx/libc.a(lib_a-ctype_.o)
 .text          0x000000000000a900        0x0 /opt/intelFPGA/20.1.1/nios2eds/bin/gnu/H-x86_64-pc-linux-gnu/bin/../lib/gcc/nios2-elf/10.1.1/../../../../../H-x86_64-pc-linux-gnu/nios2-elf/lib/mhw-mulx/libc.a(lib_a-signal.o)
 .text._init_signal_r
                0x000000000000a900       0x5c /opt/intelFPGA/20.1.1/nios2eds/bin/gnu/H-x86_64-pc-linux-gnu/bin/../lib/gcc/nios2-elf/10.1.1/../../../../../H-x86_64-pc-linux-gnu/nios2-elf/lib/mhw-mulx/libc.a(lib_a-signal.o)
                0x000000000000a900                _init_signal_r
 .text._signal_r
                0x000000000000a95c       0x98 /opt/intelFPGA/20.1.1/nios2eds/bin/gnu/H-x86_64-pc-linux-gnu/bin/../lib/gcc/nios2-elf/10.1.1/../../../../../H-x86_64-pc-linux-gnu/nios2-elf/lib/mhw-mulx/libc.a(lib_a-signal.o)
                0x000000000000a95c                _signal_r
 .text._raise_r
                0x000000000000a9f4       0xc4 /opt/intelFPGA/20.1.1/nios2eds/bin/gnu/H-x86_64-pc-linux-gnu/bin/../lib/gcc/nios2-elf/10.1.1/../../../../../H-x86_64-pc-linux-gnu/nios2-elf/lib/mhw-mulx/libc.a(lib_a-signal.o)
                0x000000000000a9f4                _raise_r
 .text.__sigtramp_r
                0x000000000000aab8       0xbc /opt/intelFPGA/20.1.1/nios2eds/bin/gnu/H-x86_64-pc-linux-gnu/bin/../lib/gcc/nios2-elf/10.1.1/../../../../../H-x86_64-pc-linux-gnu/nios2-elf/lib/mhw-mulx/libc.a(lib_a-signal.o)
                0x000000000000aab8                __sigtramp_r
 .text.raise    0x000000000000ab74       0xbc /opt/intelFPGA/20.1.1/nios2eds/bin/gnu/H-x86_64-pc-linux-gnu/bin/../lib/gcc/nios2-elf/10.1.1/../../../../../H-x86_64-pc-linux-gnu/nios2-elf/lib/mhw-mulx/libc.a(lib_a-signal.o)
                0x000000000000ab74                raise
 .text.signal   0x000000000000ac30       0xa0 /opt/intelFPGA/20.1.1/nios2eds/bin/gnu/H-x86_64-pc-linux-gnu/bin/../lib/gcc/nios2-elf/10.1.1/../../../../../H-x86_64-pc-linux-gnu/nios2-elf/lib/mhw-mulx/libc.a(lib_a-signal.o)
                0x000000000000ac30                signal
 .text._init_signal
                0x000000000000acd0       0x60 /opt/intelFPGA/20.1.1/nios2eds/bin/gnu/H-x86_64-pc-linux-gnu/bin/../lib/gcc/nios2-elf/10.1.1/../../../../../H-x86_64-pc-linux-gnu/nios2-elf/lib/mhw-mulx/libc.a(lib_a-signal.o)
                0x000000000000acd0                _init_signal
 .text.__sigtramp
                0x000000000000ad30       0xbc /opt/intelFPGA/20.1.1/nios2eds/bin/gnu/H-x86_64-pc-linux-gnu/bin/../lib/gcc/nios2-elf/10.1.1/../../../../../H-x86_64-pc-linux-gnu/nios2-elf/lib/mhw-mulx/libc.a(lib_a-signal.o)
                0x000000000000ad30                __sigtramp
 .text          0x000000000000adec        0x0 /opt/intelFPGA/20.1.1/nios2eds/bin/gnu/H-x86_64-pc-linux-gnu/bin/../lib/gcc/nios2-elf/10.1.1/../../../../../H-x86_64-pc-linux-gnu/nios2-elf/lib/mhw-mulx/libc.a(lib_a-signalr.o)
 .text._kill_r  0x000000000000adec       0x60 /opt/intelFPGA/20.1.1/nios2eds/bin/gnu/H-x86_64-pc-linux-gnu/bin/../lib/gcc/nios2-elf/10.1.1/../../../../../H-x86_64-pc-linux-gnu/nios2-elf/lib/mhw-mulx/libc.a(lib_a-signalr.o)
                0x000000000000adec                _kill_r
 .text._getpid_r
                0x000000000000ae4c        0x4 /opt/intelFPGA/20.1.1/nios2eds/bin/gnu/H-x86_64-pc-linux-gnu/bin/../lib/gcc/nios2-elf/10.1.1/../../../../../H-x86_64-pc-linux-gnu/nios2-elf/lib/mhw-mulx/libc.a(lib_a-signalr.o)
                0x000000000000ae4c                _getpid_r
 .text          0x000000000000ae50      0x590 /opt/intelFPGA/20.1.1/nios2eds/bin/gnu/H-x86_64-pc-linux-gnu/bin/../lib/gcc/nios2-elf/10.1.1/mhw-mulx/libgcc.a(_udivdi3.o)
                0x000000000000ae50                __udivdi3
 .text          0x000000000000b3e0      0x534 /opt/intelFPGA/20.1.1/nios2eds/bin/gnu/H-x86_64-pc-linux-gnu/bin/../lib/gcc/nios2-elf/10.1.1/mhw-mulx/libgcc.a(_umoddi3.o)
                0x000000000000b3e0                __umoddi3
 .text          0x000000000000b914      0x1b4 /opt/intelFPGA/20.1.1/nios2eds/bin/gnu/H-x86_64-pc-linux-gnu/bin/../lib/gcc/nios2-elf/10.1.1/mhw-mulx/libgcc.a(lib2-divmod.o)
                0x000000000000b914                __divsi3
                0x000000000000b994                __modsi3
                0x000000000000ba08                __udivsi3
                0x000000000000ba6c                __umodsi3
 .text          0x000000000000bac8      0x8f0 /opt/intelFPGA/20.1.1/nios2eds/bin/gnu/H-x86_64-pc-linux-gnu/bin/../lib/gcc/nios2-elf/10.1.1/mhw-mulx/libgcc.a(adddf3.o)
                0x000000000000bac8                __adddf3
 .text          0x000000000000c3b8      0x85c /opt/intelFPGA/20.1.1/nios2eds/bin/gnu/H-x86_64-pc-linux-gnu/bin/../lib/gcc/nios2-elf/10.1.1/mhw-mulx/libgcc.a(divdf3.o)
                0x000000000000c3b8                __divdf3
 .text          0x000000000000cc14       0x80 /opt/intelFPGA/20.1.1/nios2eds/bin/gnu/H-x86_64-pc-linux-gnu/bin/../lib/gcc/nios2-elf/10.1.1/mhw-mulx/libgcc.a(eqdf2.o)
                0x000000000000cc14                __eqdf2
                0x000000000000cc14                __nedf2
 .text          0x000000000000cc94       0xe8 /opt/intelFPGA/20.1.1/nios2eds/bin/gnu/H-x86_64-pc-linux-gnu/bin/../lib/gcc/nios2-elf/10.1.1/mhw-mulx/libgcc.a(gedf2.o)
                0x000000000000cc94                __gtdf2
                0x000000000000cc94                __gedf2
 .text          0x000000000000cd7c       0xe8 /opt/intelFPGA/20.1.1/nios2eds/bin/gnu/H-x86_64-pc-linux-gnu/bin/../lib/gcc/nios2-elf/10.1.1/mhw-mulx/libgcc.a(ledf2.o)
                0x000000000000cd7c                __ltdf2
                0x000000000000cd7c                __ledf2
 .text          0x000000000000ce64      0x674 /opt/intelFPGA/20.1.1/nios2eds/bin/gnu/H-x86_64-pc-linux-gnu/bin/../lib/gcc/nios2-elf/10.1.1/mhw-mulx/libgcc.a(muldf3.o)
                0x000000000000ce64                __muldf3
 .text          0x000000000000d4d8      0x8b4 /opt/intelFPGA/20.1.1/nios2eds/bin/gnu/H-x86_64-pc-linux-gnu/bin/../lib/gcc/nios2-elf/10.1.1/mhw-mulx/libgcc.a(subdf3.o)
                0x000000000000d4d8                __subdf3
 .text          0x000000000000dd8c       0x54 /opt/intelFPGA/20.1.1/nios2eds/bin/gnu/H-x86_64-pc-linux-gnu/bin/../lib/gcc/nios2-elf/10.1.1/mhw-mulx/libgcc.a(unorddf2.o)
                0x000000000000dd8c                __unorddf2
 .text          0x000000000000dde0       0x80 /opt/intelFPGA/20.1.1/nios2eds/bin/gnu/H-x86_64-pc-linux-gnu/bin/../lib/gcc/nios2-elf/10.1.1/mhw-mulx/libgcc.a(fixdfsi.o)
                0x000000000000dde0                __fixdfsi
 .text          0x000000000000de60       0xb8 /opt/intelFPGA/20.1.1/nios2eds/bin/gnu/H-x86_64-pc-linux-gnu/bin/../lib/gcc/nios2-elf/10.1.1/mhw-mulx/libgcc.a(floatsidf.o)
                0x000000000000de60                __floatsidf
 .text          0x000000000000df18       0x90 /opt/intelFPGA/20.1.1/nios2eds/bin/gnu/H-x86_64-pc-linux-gnu/bin/../lib/gcc/nios2-elf/10.1.1/mhw-mulx/libgcc.a(floatunsidf.o)
                0x000000000000df18                __floatunsidf
 .text          0x000000000000dfa8        0x0 /opt/intelFPGA/20.1.1/nios2eds/bin/gnu/H-x86_64-pc-linux-gnu/bin/../lib/gcc/nios2-elf/10.1.1/mhw-mulx/libgcc.a(_clz.o)
 .text          0x000000000000dfa8       0x54 /opt/intelFPGA/20.1.1/nios2eds/bin/gnu/H-x86_64-pc-linux-gnu/bin/../lib/gcc/nios2-elf/10.1.1/mhw-mulx/libgcc.a(_clzsi2.o)
                0x000000000000dfa8                __clzsi2
 .text          0x000000000000dffc      0x10c ../ucosii_binary_game_hal_part1_bsp//libucosii_bsp.a(alt_close.o)
                0x000000000000e038                close
 .text          0x000000000000e108       0x2c ../ucosii_binary_game_hal_part1_bsp//libucosii_bsp.a(alt_dev.o)
 .text          0x000000000000e134        0x0 ../ucosii_binary_game_hal_part1_bsp//libucosii_bsp.a(alt_errno.o)
 .text          0x000000000000e134       0x38 ../ucosii_binary_game_hal_part1_bsp//libucosii_bsp.a(alt_exit.o)
                0x000000000000e134                _exit
 .text          0x000000000000e16c       0xec ../ucosii_binary_game_hal_part1_bsp//libucosii_bsp.a(alt_fstat.o)
                0x000000000000e1a8                fstat
 .text          0x000000000000e258       0x20 ../ucosii_binary_game_hal_part1_bsp//libucosii_bsp.a(alt_getpid.o)
                0x000000000000e258                getpid
 .text          0x000000000000e278      0x260 ../ucosii_binary_game_hal_part1_bsp//libucosii_bsp.a(alt_gettod.o)
                0x000000000000e278                gettimeofday
 .text          0x000000000000e4d8       0xe0 ../ucosii_binary_game_hal_part1_bsp//libucosii_bsp.a(alt_isatty.o)
                0x000000000000e514                isatty
 .text          0x000000000000e5b8      0x168 ../ucosii_binary_game_hal_part1_bsp//libucosii_bsp.a(alt_kill.o)
                0x000000000000e5f4                kill
 .text          0x000000000000e720       0xec ../ucosii_binary_game_hal_part1_bsp//libucosii_bsp.a(alt_load.o)
                0x000000000000e788                alt_load
 .text          0x000000000000e80c      0x110 ../ucosii_binary_game_hal_part1_bsp//libucosii_bsp.a(alt_lseek.o)
                0x000000000000e848                lseek
 .text          0x000000000000e91c       0xc0 ../ucosii_binary_game_hal_part1_bsp//libucosii_bsp.a(alt_main.o)
                0x000000000000e91c                alt_main
 .text          0x000000000000e9dc      0x138 ../ucosii_binary_game_hal_part1_bsp//libucosii_bsp.a(alt_read.o)
                0x000000000000ea18                read
 .text          0x000000000000eb14       0x58 ../ucosii_binary_game_hal_part1_bsp//libucosii_bsp.a(alt_release_fd.o)
                0x000000000000eb14                alt_release_fd
 .text          0x000000000000eb6c       0xb8 ../ucosii_binary_game_hal_part1_bsp//libucosii_bsp.a(alt_sbrk.o)
                0x000000000000eb6c                sbrk
 .text          0x000000000000ec24      0x1ac ../ucosii_binary_game_hal_part1_bsp//libucosii_bsp.a(alt_tick.o)
                0x000000000000ec24                alt_alarm_stop
                0x000000000000ecc8                alt_tick
 .text          0x000000000000edd0      0x134 ../ucosii_binary_game_hal_part1_bsp//libucosii_bsp.a(alt_write.o)
                0x000000000000ee0c                write
 .text          0x000000000000ef04      0x120 ../ucosii_binary_game_hal_part1_bsp//libucosii_bsp.a(alt_env_lock.o)
                0x000000000000ef04                __env_lock
                0x000000000000efc4                __env_unlock
 .text          0x000000000000f024      0x1fc ../ucosii_binary_game_hal_part1_bsp//libucosii_bsp.a(alt_malloc_lock.o)
                0x000000000000f024                __malloc_lock
                0x000000000000f14c                __malloc_unlock
 .text          0x000000000000f220     0x2040 ../ucosii_binary_game_hal_part1_bsp//libucosii_bsp.a(os_core.o)
                0x000000000000f220                OSEventNameGet
                0x000000000000f344                OSEventNameSet
                0x000000000000f48c                OSEventPendMulti
                0x000000000000fac4                OSInit
                0x000000000000fb1c                OSIntEnter
                0x000000000000fb68                OSIntExit
                0x000000000000fc5c                OSSchedLock
                0x000000000000fcec                OSSchedUnlock
                0x000000000000fdd0                OSStart
                0x000000000000fe38                OSStatInit
                0x000000000000fef0                OSTimeTick
                0x0000000000010124                OSVersion
                0x0000000000010144                OS_Dummy
                0x0000000000010164                OS_EventTaskRdy
                0x00000000000102ec                OS_EventTaskWait
                0x00000000000103f4                OS_EventTaskWaitMulti
                0x000000000001053c                OS_EventTaskRemove
                0x00000000000105ec                OS_EventTaskRemoveMulti
                0x00000000000106e8                OS_EventWaitListInit
                0x0000000000010ad4                OS_MemClr
                0x0000000000010b2c                OS_MemCopy
                0x0000000000010b98                OS_Sched
                0x0000000000010cd0                OS_StrCopy
                0x0000000000010d44                OS_StrLen
                0x0000000000010d98                OS_TaskIdle
                0x0000000000010df8                OS_TaskStat
                0x0000000000010ebc                OS_TaskStatStkChk
                0x0000000000010f80                OS_TCBInit
 .text          0x0000000000011260      0x190 ../ucosii_binary_game_hal_part1_bsp//libucosii_bsp.a(os_dbg.o)
                0x0000000000011260                OSDebugInit
 .text          0x00000000000113f0     0x17c4 ../ucosii_binary_game_hal_part1_bsp//libucosii_bsp.a(os_flag.o)
                0x00000000000113f0                OSFlagAccept
                0x0000000000011714                OSFlagCreate
                0x0000000000011824                OSFlagDel
                0x0000000000011a7c                OSFlagNameGet
                0x0000000000011bac                OSFlagNameSet
                0x0000000000011d00                OSFlagPend
                0x0000000000012300                OSFlagPendGetFlagsRdy
                0x0000000000012364                OSFlagPost
                0x0000000000012710                OSFlagQuery
                0x000000000001293c                OS_FlagInit
                0x0000000000012b10                OS_FlagUnlink
 .text          0x0000000000012bb4      0x778 ../ucosii_binary_game_hal_part1_bsp//libucosii_bsp.a(os_mem.o)
                0x0000000000012bb4                OSMemCreate
                0x0000000000012d8c                OSMemGet
                0x0000000000012e84                OSMemNameGet
                0x0000000000012f78                OSMemNameSet
                0x0000000000013094                OSMemPut
                0x0000000000013174                OSMemQuery
                0x0000000000013260                OS_MemInit
 .text          0x000000000001332c     0x1108 ../ucosii_binary_game_hal_part1_bsp//libucosii_bsp.a(os_mutex.o)
                0x000000000001332c                OSMutexAccept
                0x00000000000134dc                OSMutexCreate
                0x0000000000013698                OSMutexDel
                0x0000000000013994                OSMutexPend
                0x0000000000013f24                OSMutexPost
                0x000000000001413c                OSMutexQuery
 .text          0x0000000000014434     0x115c ../ucosii_binary_game_hal_part1_bsp//libucosii_bsp.a(os_q.o)
                0x0000000000014434                OSQAccept
                0x0000000000014578                OSQCreate
                0x0000000000014728                OSQDel
                0x00000000000149b8                OSQFlush
                0x0000000000014a74                OSQPend
                0x0000000000014d0c                OSQPendAbort
                0x0000000000014e80                OSQPost
                0x0000000000014ff4                OSQPostFront
                0x0000000000015170                OSQPostOpt
                0x0000000000015388                OSQQuery
                0x00000000000154e8                OS_QInit
 .text          0x0000000000015590      0xa98 ../ucosii_binary_game_hal_part1_bsp//libucosii_bsp.a(os_sem.o)
                0x0000000000015590                OSSemAccept
                0x0000000000015644                OSSemCreate
                0x0000000000015720                OSSemDel
                0x0000000000015970                OSSemPend
                0x0000000000015b84                OSSemPendAbort
                0x0000000000015cf8                OSSemPost
                0x0000000000015e14                OSSemQuery
                0x0000000000015f28                OSSemSet
 .text          0x0000000000016028     0x1750 ../ucosii_binary_game_hal_part1_bsp//libucosii_bsp.a(os_task.o)
                0x0000000000016028                OSTaskChangePrio
                0x00000000000164ec                OSTaskCreate
                0x0000000000016690                OSTaskCreateExt
                0x000000000001686c                OSTaskDel
                0x0000000000016bb0                OSTaskDelReq
                0x0000000000016d08                OSTaskNameGet
                0x0000000000016ea4                OSTaskNameSet
                0x0000000000017060                OSTaskResume
                0x0000000000017240                OSTaskStkChk
                0x00000000000173f8                OSTaskSuspend
                0x00000000000175e0                OSTaskQuery
                0x0000000000017708                OS_TaskStkClr
 .text          0x0000000000017778      0x500 ../ucosii_binary_game_hal_part1_bsp//libucosii_bsp.a(os_time.o)
                0x0000000000017778                OSTimeDly
                0x0000000000017880                OSTimeDlyHMSM
                0x00000000000179d4                OSTimeDlyResume
                0x0000000000017bb4                OSTimeGet
                0x0000000000017c14                OSTimeSet
 .text          0x0000000000017c78      0x844 ../ucosii_binary_game_hal_part1_bsp//libucosii_bsp.a(alt_sys_init.o)
                0x0000000000017cac                alt_irq_init
                0x0000000000017ce8                alt_sys_init
 .text          0x00000000000184bc      0x164 ../ucosii_binary_game_hal_part1_bsp//libucosii_bsp.a(altera_avalon_jtag_uart_fd.o)
                0x00000000000184bc                altera_avalon_jtag_uart_read_fd
                0x000000000001851c                altera_avalon_jtag_uart_write_fd
                0x000000000001857c                altera_avalon_jtag_uart_close_fd
                0x00000000000185cc                altera_avalon_jtag_uart_ioctl_fd
 .text          0x0000000000018620      0x568 ../ucosii_binary_game_hal_part1_bsp//libucosii_bsp.a(altera_avalon_jtag_uart_init.o)
                0x0000000000018620                altera_avalon_jtag_uart_init
                0x0000000000018b20                altera_avalon_jtag_uart_close
 .text          0x0000000000018b88       0xf4 ../ucosii_binary_game_hal_part1_bsp//libucosii_bsp.a(altera_avalon_jtag_uart_ioctl.o)
                0x0000000000018b88                altera_avalon_jtag_uart_ioctl
 .text          0x0000000000018c7c      0x2c8 ../ucosii_binary_game_hal_part1_bsp//libucosii_bsp.a(altera_avalon_jtag_uart_read.o)
                0x0000000000018c7c                altera_avalon_jtag_uart_read
 .text          0x0000000000018f44      0x2d0 ../ucosii_binary_game_hal_part1_bsp//libucosii_bsp.a(altera_avalon_jtag_uart_write.o)
                0x0000000000018f44                altera_avalon_jtag_uart_write
 .text          0x0000000000019214       0xfc ../ucosii_binary_game_hal_part1_bsp//libucosii_bsp.a(altera_avalon_timer_sc.o)
                0x0000000000019294                alt_avalon_timer_sc_init
 .text          0x0000000000019310      0x4fc ../ucosii_binary_game_hal_part1_bsp//libucosii_bsp.a(altera_up_avalon_character_lcd.o)
                0x0000000000019310                get_DDRAM_addr
                0x0000000000019384                alt_up_character_lcd_send_cmd
                0x00000000000193c4                alt_up_character_lcd_init
                0x00000000000193fc                alt_up_character_lcd_open_dev
                0x0000000000019438                alt_up_character_lcd_write
                0x00000000000194b8                alt_up_character_lcd_string
                0x0000000000019534                alt_up_character_lcd_write_fd
                0x0000000000019584                alt_up_character_lcd_set_cursor_pos
                0x00000000000195f8                alt_up_character_lcd_shift_cursor
                0x0000000000019684                alt_up_character_lcd_shift_display
                0x0000000000019710                alt_up_character_lcd_erase_pos
                0x000000000001979c                alt_up_character_lcd_cursor_off
                0x00000000000197d4                alt_up_character_lcd_cursor_blink_on
 .text          0x000000000001980c      0x38c ../ucosii_binary_game_hal_part1_bsp//libucosii_bsp.a(altera_up_avalon_irda.o)
                0x000000000001980c                alt_up_irda_enable_read_interrupt
                0x0000000000019868                alt_up_irda_disable_read_interrupt
                0x00000000000198c8                alt_up_irda_get_used_space_in_read_FIFO
                0x0000000000019908                alt_up_irda_get_available_space_in_write_FIFO
                0x0000000000019944                alt_up_irda_check_parity
                0x0000000000019988                alt_up_irda_write_data
                0x00000000000199c8                alt_up_irda_read_data
                0x0000000000019a3c                alt_up_irda_read_fd
                0x0000000000019acc                alt_up_irda_write_fd
                0x0000000000019b5c                alt_up_irda_open_dev
 .text          0x0000000000019b98      0x6b4 ../ucosii_binary_game_hal_part1_bsp//libucosii_bsp.a(altera_up_avalon_ps2.o)
                0x0000000000019b98                read_RI_bit
                0x0000000000019bcc                read_RE_bit
                0x0000000000019bfc                read_CE_bit
                0x0000000000019c30                read_num_bytes_available
                0x0000000000019c60                read_data_valid
                0x0000000000019c94                read_data_byte
                0x0000000000019cc0                alt_up_ps2_init
                0x0000000000019d88                alt_up_ps2_enable_read_interrupt
                0x0000000000019de4                alt_up_ps2_disable_read_interrupt
                0x0000000000019e44                alt_up_ps2_write_data_byte
                0x0000000000019eb8                alt_up_ps2_wait_for_ack
                0x0000000000019f20                alt_up_ps2_write_data_byte_with_ack
                0x0000000000019f84                alt_up_ps2_read_data_byte_timeout
                0x000000000001a020                alt_up_ps2_read_data_byte
                0x000000000001a090                alt_up_ps2_clear_fifo
                0x000000000001a0ec                alt_up_ps2_read_fd
                0x000000000001a178                alt_up_ps2_write_fd
                0x000000000001a210                alt_up_ps2_open_dev
 .text          0x000000000001a24c      0x390 ../ucosii_binary_game_hal_part1_bsp//libucosii_bsp.a(altera_up_avalon_rs232.o)
                0x000000000001a24c                alt_up_rs232_enable_read_interrupt
                0x000000000001a2a8                alt_up_rs232_disable_read_interrupt
                0x000000000001a308                alt_up_rs232_get_used_space_in_read_FIFO
                0x000000000001a348                alt_up_rs232_get_available_space_in_write_FIFO
                0x000000000001a384                alt_up_rs232_check_parity
                0x000000000001a3c8                alt_up_rs232_write_data
                0x000000000001a408                alt_up_rs232_read_data
                0x000000000001a47c                alt_up_rs232_read_fd
                0x000000000001a50c                alt_up_rs232_write_fd
                0x000000000001a5a0                alt_up_rs232_open_dev
 .text          0x000000000001a5dc      0x134 ../ucosii_binary_game_hal_part1_bsp//libucosii_bsp.a(alt_alarm_start.o)
                0x000000000001a5dc                alt_alarm_start
 .text          0x000000000001a710       0x20 ../ucosii_binary_game_hal_part1_bsp//libucosii_bsp.a(alt_dcache_flush_all.o)
                0x000000000001a710                alt_dcache_flush_all
 .text          0x000000000001a730       0xe4 ../ucosii_binary_game_hal_part1_bsp//libucosii_bsp.a(alt_dev_llist_insert.o)
                0x000000000001a76c                alt_dev_llist_insert
 .text          0x000000000001a814       0x64 ../ucosii_binary_game_hal_part1_bsp//libucosii_bsp.a(alt_do_ctors.o)
                0x000000000001a814                _do_ctors
 .text          0x000000000001a878       0x64 ../ucosii_binary_game_hal_part1_bsp//libucosii_bsp.a(alt_do_dtors.o)
                0x000000000001a878                _do_dtors
 .text          0x000000000001a8dc       0x90 ../ucosii_binary_game_hal_part1_bsp//libucosii_bsp.a(alt_find_dev.o)
                0x000000000001a8dc                alt_find_dev
 .text          0x000000000001a96c       0x34 ../ucosii_binary_game_hal_part1_bsp//libucosii_bsp.a(alt_icache_flush_all.o)
                0x000000000001a96c                alt_icache_flush_all
 .text          0x000000000001a9a0      0x12c ../ucosii_binary_game_hal_part1_bsp//libucosii_bsp.a(alt_io_redirect.o)
                0x000000000001aa50                alt_io_redirect
 .text          0x000000000001aacc      0x180 ../ucosii_binary_game_hal_part1_bsp//libucosii_bsp.a(alt_irq_register.o)
                0x000000000001aacc                alt_irq_register
 .text          0x000000000001ac4c        0x0 ../ucosii_binary_game_hal_part1_bsp//libucosii_bsp.a(alt_irq_vars.o)
 .text          0x000000000001ac4c      0x248 ../ucosii_binary_game_hal_part1_bsp//libucosii_bsp.a(alt_open.o)
                0x000000000001ad40                open
 .text          0x000000000001ae94       0x24 ../ucosii_binary_game_hal_part1_bsp//libucosii_bsp.a(altera_nios2_gen2_irq.o)
                0x000000000001ae94                altera_nios2_gen2_irq_init
 .text          0x000000000001aeb8       0xd0 ../ucosii_binary_game_hal_part1_bsp//libucosii_bsp.a(os_cpu_a.o)
                0x000000000001aeb8                OSCtxSw
                0x000000000001aeb8                OSIntCtxSw
                0x000000000001af44                OSStartHighRdy
                0x000000000001af64                OSStartTsk
 .text          0x000000000001af88      0x278 ../ucosii_binary_game_hal_part1_bsp//libucosii_bsp.a(os_cpu_c.o)
                0x000000000001af88                OSTaskStkInit
                0x000000000001b0d4                OSTaskCreateHook
                0x000000000001b0f8                OSTaskDelHook
                0x000000000001b11c                OSTaskSwHook
                0x000000000001b13c                OSTaskStatHook
                0x000000000001b15c                OSTimeTickHook
                0x000000000001b17c                OSInitHookBegin
                0x000000000001b19c                OSInitHookEnd
                0x000000000001b1bc                OSTaskIdleHook
                0x000000000001b1dc                OSTCBInitHook
 .text          0x000000000001b200      0x108 ../ucosii_binary_game_hal_part1_bsp//libucosii_bsp.a(alt_find_file.o)
                0x000000000001b200                alt_find_file
 .text          0x000000000001b308       0xd8 ../ucosii_binary_game_hal_part1_bsp//libucosii_bsp.a(alt_get_fd.o)
                0x000000000001b308                alt_get_fd
 .text          0x000000000001b3e0       0x90 ../ucosii_binary_game_hal_part1_bsp//libucosii_bsp.a(alt_icache_flush.o)
                0x000000000001b3e0                alt_icache_flush
 .text          0x000000000001b470        0x0 ../ucosii_binary_game_hal_part1_bsp//libucosii_bsp.a(alt_irq_entry.o)
 .text          0x000000000001b470        0x0 ../ucosii_binary_game_hal_part1_bsp//libucosii_bsp.a(alt_irq_handler.o)
 .text          0x000000000001b470        0x0 ../ucosii_binary_game_hal_part1_bsp//libucosii_bsp.a(alt_exception_entry.o)
 .text          0x000000000001b470       0x98 ../ucosii_binary_game_hal_part1_bsp//libucosii_bsp.a(alt_instruction_exception_entry.o)
                0x000000000001b470                alt_exception_cause_generated_bad_addr
 .text          0x000000000001b508        0x0 /opt/intelFPGA/20.1.1/nios2eds/bin/gnu/H-x86_64-pc-linux-gnu/bin/../lib/gcc/nios2-elf/10.1.1/../../../../../H-x86_64-pc-linux-gnu/nios2-elf/lib/mhw-mulx/libc.a(lib_a-atexit.o)
 .text.atexit   0x000000000001b508       0x14 /opt/intelFPGA/20.1.1/nios2eds/bin/gnu/H-x86_64-pc-linux-gnu/bin/../lib/gcc/nios2-elf/10.1.1/../../../../../H-x86_64-pc-linux-gnu/nios2-elf/lib/mhw-mulx/libc.a(lib_a-atexit.o)
                0x000000000001b508                atexit
 .text          0x000000000001b51c        0x0 /opt/intelFPGA/20.1.1/nios2eds/bin/gnu/H-x86_64-pc-linux-gnu/bin/../lib/gcc/nios2-elf/10.1.1/../../../../../H-x86_64-pc-linux-gnu/nios2-elf/lib/mhw-mulx/libc.a(lib_a-exit.o)
 .text.exit     0x000000000001b51c       0x34 /opt/intelFPGA/20.1.1/nios2eds/bin/gnu/H-x86_64-pc-linux-gnu/bin/../lib/gcc/nios2-elf/10.1.1/../../../../../H-x86_64-pc-linux-gnu/nios2-elf/lib/mhw-mulx/libc.a(lib_a-exit.o)
                0x000000000001b51c                exit
 .text          0x000000000001b550        0x0 /opt/intelFPGA/20.1.1/nios2eds/bin/gnu/H-x86_64-pc-linux-gnu/bin/../lib/gcc/nios2-elf/10.1.1/../../../../../H-x86_64-pc-linux-gnu/nios2-elf/lib/mhw-mulx/libc.a(lib_a-memcmp.o)
 .text.memcmp   0x000000000001b550       0x78 /opt/intelFPGA/20.1.1/nios2eds/bin/gnu/H-x86_64-pc-linux-gnu/bin/../lib/gcc/nios2-elf/10.1.1/../../../../../H-x86_64-pc-linux-gnu/nios2-elf/lib/mhw-mulx/libc.a(lib_a-memcmp.o)
                0x000000000001b550                memcmp
 .text          0x000000000001b5c8        0x0 /opt/intelFPGA/20.1.1/nios2eds/bin/gnu/H-x86_64-pc-linux-gnu/bin/../lib/gcc/nios2-elf/10.1.1/../../../../../H-x86_64-pc-linux-gnu/nios2-elf/lib/mhw-mulx/libc.a(lib_a-__atexit.o)
 .text.__register_exitproc
                0x000000000001b5c8       0x90 /opt/intelFPGA/20.1.1/nios2eds/bin/gnu/H-x86_64-pc-linux-gnu/bin/../lib/gcc/nios2-elf/10.1.1/../../../../../H-x86_64-pc-linux-gnu/nios2-elf/lib/mhw-mulx/libc.a(lib_a-__atexit.o)
                0x000000000001b5c8                __register_exitproc
 .text          0x000000000001b658        0x0 /opt/intelFPGA/20.1.1/nios2eds/bin/gnu/H-x86_64-pc-linux-gnu/bin/../lib/gcc/nios2-elf/10.1.1/../../../../../H-x86_64-pc-linux-gnu/nios2-elf/lib/mhw-mulx/libc.a(lib_a-__call_atexit.o)
 .text.__call_exitprocs
                0x000000000001b658      0x120 /opt/intelFPGA/20.1.1/nios2eds/bin/gnu/H-x86_64-pc-linux-gnu/bin/../lib/gcc/nios2-elf/10.1.1/../../../../../H-x86_64-pc-linux-gnu/nios2-elf/lib/mhw-mulx/libc.a(lib_a-__call_atexit.o)
                0x000000000001b658                __call_exitprocs
 *(.gnu.warning.*)
 *(.fini)
                [!provide]                        PROVIDE (__etext = ABSOLUTE (.))
                [!provide]                        PROVIDE (_etext = ABSOLUTE (.))
                [!provide]                        PROVIDE (etext = ABSOLUTE (.))
 *(.eh_frame_hdr)
                0x000000000001b778                . = ALIGN (0x4)
                [!provide]                        PROVIDE (__preinit_array_start = ABSOLUTE (.))
 *(.preinit_array)
                [!provide]                        PROVIDE (__preinit_array_end = ABSOLUTE (.))
                [!provide]                        PROVIDE (__init_array_start = ABSOLUTE (.))
 *(.init_array)
                [!provide]                        PROVIDE (__init_array_end = ABSOLUTE (.))
                [!provide]                        PROVIDE (__fini_array_start = ABSOLUTE (.))
 *(.fini_array)
                [!provide]                        PROVIDE (__fini_array_end = ABSOLUTE (.))
 *(.eh_frame)
 *(.gcc_except_table .gcc_except_table.*)
 *(.dynamic)
                0x000000000001b778                PROVIDE (__CTOR_LIST__ = ABSOLUTE (.))
 *(.ctors)
 *(SORT_BY_NAME(.ctors.*))
                0x000000000001b778                PROVIDE (__CTOR_END__ = ABSOLUTE (.))
                0x000000000001b778                PROVIDE (__DTOR_LIST__ = ABSOLUTE (.))
 *(.dtors)
 *(SORT_BY_NAME(.dtors.*))
                0x000000000001b778                PROVIDE (__DTOR_END__ = ABSOLUTE (.))
 *(.jcr)
                0x000000000001b778                . = ALIGN (0x4)

.rodata         0x000000000001b778      0xa24
                0x000000000001b778                PROVIDE (__ram_rodata_start = ABSOLUTE (.))
                0x000000000001b778                . = ALIGN (0x4)
 *(.rodata .rodata.* .gnu.linkonce.r.*)
 .rodata        0x000000000001b778      0x16c obj/default/hello_ucosii.o
 .rodata.___vfprintf_internal_r.str1.4
                0x000000000001b8e4       0x42 /opt/intelFPGA/20.1.1/nios2eds/bin/gnu/H-x86_64-pc-linux-gnu/bin/../lib/gcc/nios2-elf/10.1.1/../../../../../H-x86_64-pc-linux-gnu/nios2-elf/lib/mhw-mulx/libc.a(lib_a-vfprintf.o)
 *fill*         0x000000000001b926        0x2 
 .rodata.zeroes.0
                0x000000000001b928       0x10 /opt/intelFPGA/20.1.1/nios2eds/bin/gnu/H-x86_64-pc-linux-gnu/bin/../lib/gcc/nios2-elf/10.1.1/../../../../../H-x86_64-pc-linux-gnu/nios2-elf/lib/mhw-mulx/libc.a(lib_a-vfprintf.o)
 .rodata.blanks.1
                0x000000000001b938       0x10 /opt/intelFPGA/20.1.1/nios2eds/bin/gnu/H-x86_64-pc-linux-gnu/bin/../lib/gcc/nios2-elf/10.1.1/../../../../../H-x86_64-pc-linux-gnu/nios2-elf/lib/mhw-mulx/libc.a(lib_a-vfprintf.o)
 .rodata._dtoa_r.str1.4
                0x000000000001b948       0x61 /opt/intelFPGA/20.1.1/nios2eds/bin/gnu/H-x86_64-pc-linux-gnu/bin/../lib/gcc/nios2-elf/10.1.1/../../../../../H-x86_64-pc-linux-gnu/nios2-elf/lib/mhw-mulx/libc.a(lib_a-dtoa.o)
                                         0x65 (size before relaxing)
 *fill*         0x000000000001b9a9        0x3 
 .rodata.__multadd.str1.4
                0x000000000001b9ac       0x3e /opt/intelFPGA/20.1.1/nios2eds/bin/gnu/H-x86_64-pc-linux-gnu/bin/../lib/gcc/nios2-elf/10.1.1/../../../../../H-x86_64-pc-linux-gnu/nios2-elf/lib/mhw-mulx/libc.a(lib_a-mprec.o)
                                         0x52 (size before relaxing)
 *fill*         0x000000000001b9ea        0x2 
 .rodata.p05.0  0x000000000001b9ec        0xc /opt/intelFPGA/20.1.1/nios2eds/bin/gnu/H-x86_64-pc-linux-gnu/bin/../lib/gcc/nios2-elf/10.1.1/../../../../../H-x86_64-pc-linux-gnu/nios2-elf/lib/mhw-mulx/libc.a(lib_a-mprec.o)
 .rodata.__mprec_tinytens
                0x000000000001b9f8       0x28 /opt/intelFPGA/20.1.1/nios2eds/bin/gnu/H-x86_64-pc-linux-gnu/bin/../lib/gcc/nios2-elf/10.1.1/../../../../../H-x86_64-pc-linux-gnu/nios2-elf/lib/mhw-mulx/libc.a(lib_a-mprec.o)
                0x000000000001b9f8                __mprec_tinytens
 .rodata.__mprec_bigtens
                0x000000000001ba20       0x28 /opt/intelFPGA/20.1.1/nios2eds/bin/gnu/H-x86_64-pc-linux-gnu/bin/../lib/gcc/nios2-elf/10.1.1/../../../../../H-x86_64-pc-linux-gnu/nios2-elf/lib/mhw-mulx/libc.a(lib_a-mprec.o)
                0x000000000001ba20                __mprec_bigtens
 .rodata.__mprec_tens
                0x000000000001ba48       0xc8 /opt/intelFPGA/20.1.1/nios2eds/bin/gnu/H-x86_64-pc-linux-gnu/bin/../lib/gcc/nios2-elf/10.1.1/../../../../../H-x86_64-pc-linux-gnu/nios2-elf/lib/mhw-mulx/libc.a(lib_a-mprec.o)
                0x000000000001ba48                __mprec_tens
 .rodata.___vfiprintf_internal_r.str1.4
                0x000000000001bb10       0x2f /opt/intelFPGA/20.1.1/nios2eds/bin/gnu/H-x86_64-pc-linux-gnu/bin/../lib/gcc/nios2-elf/10.1.1/../../../../../H-x86_64-pc-linux-gnu/nios2-elf/lib/mhw-mulx/libc.a(lib_a-vfiprintf.o)
 .rodata.zeroes.0
                0x000000000001bb10       0x10 /opt/intelFPGA/20.1.1/nios2eds/bin/gnu/H-x86_64-pc-linux-gnu/bin/../lib/gcc/nios2-elf/10.1.1/../../../../../H-x86_64-pc-linux-gnu/nios2-elf/lib/mhw-mulx/libc.a(lib_a-vfiprintf.o)
 .rodata.blanks.1
                0x000000000001bb20       0x10 /opt/intelFPGA/20.1.1/nios2eds/bin/gnu/H-x86_64-pc-linux-gnu/bin/../lib/gcc/nios2-elf/10.1.1/../../../../../H-x86_64-pc-linux-gnu/nios2-elf/lib/mhw-mulx/libc.a(lib_a-vfiprintf.o)
 .rodata.__assert_func.str1.4
                0x000000000001bb30       0x3f /opt/intelFPGA/20.1.1/nios2eds/bin/gnu/H-x86_64-pc-linux-gnu/bin/../lib/gcc/nios2-elf/10.1.1/../../../../../H-x86_64-pc-linux-gnu/nios2-elf/lib/mhw-mulx/libc.a(lib_a-assert.o)
                                         0x43 (size before relaxing)
 *fill*         0x000000000001bb6f        0x1 
 .rodata._setlocale_r.str1.4
                0x000000000001bb70        0xa /opt/intelFPGA/20.1.1/nios2eds/bin/gnu/H-x86_64-pc-linux-gnu/bin/../lib/gcc/nios2-elf/10.1.1/../../../../../H-x86_64-pc-linux-gnu/nios2-elf/lib/mhw-mulx/libc.a(lib_a-locale.o)
 *fill*         0x000000000001bb7a        0x2 
 .rodata.str1.4
                0x000000000001bb7c        0x2 /opt/intelFPGA/20.1.1/nios2eds/bin/gnu/H-x86_64-pc-linux-gnu/bin/../lib/gcc/nios2-elf/10.1.1/../../../../../H-x86_64-pc-linux-gnu/nios2-elf/lib/mhw-mulx/libc.a(lib_a-locale.o)
                                          0x5 (size before relaxing)
 *fill*         0x000000000001bb7e        0x2 
 .rodata._ctype_
                0x000000000001bb80      0x101 /opt/intelFPGA/20.1.1/nios2eds/bin/gnu/H-x86_64-pc-linux-gnu/bin/../lib/gcc/nios2-elf/10.1.1/../../../../../H-x86_64-pc-linux-gnu/nios2-elf/lib/mhw-mulx/libc.a(lib_a-ctype_.o)
                0x000000000001bb80                _ctype_
 *fill*         0x000000000001bc81        0x3 
 .rodata._ctype_b
                0x000000000001bc84      0x180 /opt/intelFPGA/20.1.1/nios2eds/bin/gnu/H-x86_64-pc-linux-gnu/bin/../lib/gcc/nios2-elf/10.1.1/../../../../../H-x86_64-pc-linux-gnu/nios2-elf/lib/mhw-mulx/libc.a(lib_a-ctype_.o)
                0x000000000001bc84                _ctype_b
 .rodata        0x000000000001be04      0x100 /opt/intelFPGA/20.1.1/nios2eds/bin/gnu/H-x86_64-pc-linux-gnu/bin/../lib/gcc/nios2-elf/10.1.1/mhw-mulx/libgcc.a(_clz.o)
                0x000000000001be04                __clz_tab
 .rodata        0x000000000001bf04        0xa ../ucosii_binary_game_hal_part1_bsp//libucosii_bsp.a(alt_dev.o)
 *fill*         0x000000000001bf0e        0x2 
 .rodata        0x000000000001bf10        0xf ../ucosii_binary_game_hal_part1_bsp//libucosii_bsp.a(alt_main.o)
 *fill*         0x000000000001bf1f        0x1 
 .rodata        0x000000000001bf20      0x11e ../ucosii_binary_game_hal_part1_bsp//libucosii_bsp.a(os_core.o)
                0x000000000001bf20                OSUnMapTbl
 *fill*         0x000000000001c03e        0x2 
 .rodata        0x000000000001c040      0x159 ../ucosii_binary_game_hal_part1_bsp//libucosii_bsp.a(alt_sys_init.o)
 *(.rodata1)
                0x000000000001c19c                . = ALIGN (0x4)
 *fill*         0x000000000001c199        0x3 
                0x000000000001c19c                PROVIDE (__ram_rodata_end = ABSOLUTE (.))
                0x000000000001b778                PROVIDE (__flash_rodata_start = LOADADDR (.rodata))

.rwdata         0x000000000001c19c     0x1f74 load address 0x000000000001e110
                0x000000000001c19c                PROVIDE (__ram_rwdata_start = ABSOLUTE (.))
                0x000000000001c19c                . = ALIGN (0x4)
 *(.got.plt)
 *(.got)
 *(.data1)
 *(.data .data.* .gnu.linkonce.d.*)
 .data          0x000000000001c19c        0x0 ../ucosii_binary_game_hal_part1_bsp//obj/HAL/src/crt0.o
 .data          0x000000000001c19c        0x0 obj/default/hello_ucosii.o
 .data          0x000000000001c19c        0x0 /opt/intelFPGA/20.1.1/nios2eds/bin/gnu/H-x86_64-pc-linux-gnu/bin/../lib/gcc/nios2-elf/10.1.1/../../../../../H-x86_64-pc-linux-gnu/nios2-elf/lib/mhw-mulx/libc.a(lib_a-memcpy.o)
 .data          0x000000000001c19c        0x0 /opt/intelFPGA/20.1.1/nios2eds/bin/gnu/H-x86_64-pc-linux-gnu/bin/../lib/gcc/nios2-elf/10.1.1/../../../../../H-x86_64-pc-linux-gnu/nios2-elf/lib/mhw-mulx/libc.a(lib_a-printf.o)
 .data          0x000000000001c19c        0x0 /opt/intelFPGA/20.1.1/nios2eds/bin/gnu/H-x86_64-pc-linux-gnu/bin/../lib/gcc/nios2-elf/10.1.1/../../../../../H-x86_64-pc-linux-gnu/nios2-elf/lib/mhw-mulx/libc.a(lib_a-rand.o)
 .data          0x000000000001c19c        0x0 /opt/intelFPGA/20.1.1/nios2eds/bin/gnu/H-x86_64-pc-linux-gnu/bin/../lib/gcc/nios2-elf/10.1.1/../../../../../H-x86_64-pc-linux-gnu/nios2-elf/lib/mhw-mulx/libc.a(lib_a-time.o)
 .data          0x000000000001c19c        0x0 /opt/intelFPGA/20.1.1/nios2eds/bin/gnu/H-x86_64-pc-linux-gnu/bin/../lib/gcc/nios2-elf/10.1.1/../../../../../H-x86_64-pc-linux-gnu/nios2-elf/lib/mhw-mulx/libc.a(lib_a-vfprintf.o)
 .data          0x000000000001c19c        0x0 /opt/intelFPGA/20.1.1/nios2eds/bin/gnu/H-x86_64-pc-linux-gnu/bin/../lib/gcc/nios2-elf/10.1.1/../../../../../H-x86_64-pc-linux-gnu/nios2-elf/lib/mhw-mulx/libc.a(lib_a-wsetup.o)
 .data          0x000000000001c19c        0x0 /opt/intelFPGA/20.1.1/nios2eds/bin/gnu/H-x86_64-pc-linux-gnu/bin/../lib/gcc/nios2-elf/10.1.1/../../../../../H-x86_64-pc-linux-gnu/nios2-elf/lib/mhw-mulx/libc.a(lib_a-dtoa.o)
 .data          0x000000000001c19c        0x0 /opt/intelFPGA/20.1.1/nios2eds/bin/gnu/H-x86_64-pc-linux-gnu/bin/../lib/gcc/nios2-elf/10.1.1/../../../../../H-x86_64-pc-linux-gnu/nios2-elf/lib/mhw-mulx/libc.a(lib_a-fflush.o)
 .data          0x000000000001c19c        0x0 /opt/intelFPGA/20.1.1/nios2eds/bin/gnu/H-x86_64-pc-linux-gnu/bin/../lib/gcc/nios2-elf/10.1.1/../../../../../H-x86_64-pc-linux-gnu/nios2-elf/lib/mhw-mulx/libc.a(lib_a-findfp.o)
 .data          0x000000000001c19c        0x0 /opt/intelFPGA/20.1.1/nios2eds/bin/gnu/H-x86_64-pc-linux-gnu/bin/../lib/gcc/nios2-elf/10.1.1/../../../../../H-x86_64-pc-linux-gnu/nios2-elf/lib/mhw-mulx/libc.a(lib_a-freer.o)
 .data          0x000000000001c19c        0x0 /opt/intelFPGA/20.1.1/nios2eds/bin/gnu/H-x86_64-pc-linux-gnu/bin/../lib/gcc/nios2-elf/10.1.1/../../../../../H-x86_64-pc-linux-gnu/nios2-elf/lib/mhw-mulx/libc.a(lib_a-fwalk.o)
 .data          0x000000000001c19c        0x0 /opt/intelFPGA/20.1.1/nios2eds/bin/gnu/H-x86_64-pc-linux-gnu/bin/../lib/gcc/nios2-elf/10.1.1/../../../../../H-x86_64-pc-linux-gnu/nios2-elf/lib/mhw-mulx/libc.a(lib_a-gettimeofdayr.o)
 .data          0x000000000001c19c        0x0 /opt/intelFPGA/20.1.1/nios2eds/bin/gnu/H-x86_64-pc-linux-gnu/bin/../lib/gcc/nios2-elf/10.1.1/../../../../../H-x86_64-pc-linux-gnu/nios2-elf/lib/mhw-mulx/libc.a(lib_a-impure.o)
 .data.impure_data
                0x000000000001c19c      0x424 /opt/intelFPGA/20.1.1/nios2eds/bin/gnu/H-x86_64-pc-linux-gnu/bin/../lib/gcc/nios2-elf/10.1.1/../../../../../H-x86_64-pc-linux-gnu/nios2-elf/lib/mhw-mulx/libc.a(lib_a-impure.o)
 .data          0x000000000001c5c0        0x0 /opt/intelFPGA/20.1.1/nios2eds/bin/gnu/H-x86_64-pc-linux-gnu/bin/../lib/gcc/nios2-elf/10.1.1/../../../../../H-x86_64-pc-linux-gnu/nios2-elf/lib/mhw-mulx/libc.a(lib_a-int_errno.o)
 .data          0x000000000001c5c0        0x0 /opt/intelFPGA/20.1.1/nios2eds/bin/gnu/H-x86_64-pc-linux-gnu/bin/../lib/gcc/nios2-elf/10.1.1/../../../../../H-x86_64-pc-linux-gnu/nios2-elf/lib/mhw-mulx/libc.a(lib_a-localeconv.o)
 .data          0x000000000001c5c0        0x0 /opt/intelFPGA/20.1.1/nios2eds/bin/gnu/H-x86_64-pc-linux-gnu/bin/../lib/gcc/nios2-elf/10.1.1/../../../../../H-x86_64-pc-linux-gnu/nios2-elf/lib/mhw-mulx/libc.a(lib_a-makebuf.o)
 .data          0x000000000001c5c0        0x0 /opt/intelFPGA/20.1.1/nios2eds/bin/gnu/H-x86_64-pc-linux-gnu/bin/../lib/gcc/nios2-elf/10.1.1/../../../../../H-x86_64-pc-linux-gnu/nios2-elf/lib/mhw-mulx/libc.a(lib_a-mallocr.o)
 .data.__malloc_av_
                0x000000000001c5c0      0x408 /opt/intelFPGA/20.1.1/nios2eds/bin/gnu/H-x86_64-pc-linux-gnu/bin/../lib/gcc/nios2-elf/10.1.1/../../../../../H-x86_64-pc-linux-gnu/nios2-elf/lib/mhw-mulx/libc.a(lib_a-mallocr.o)
                0x000000000001c5c0                __malloc_av_
 .data          0x000000000001c9c8        0x0 /opt/intelFPGA/20.1.1/nios2eds/bin/gnu/H-x86_64-pc-linux-gnu/bin/../lib/gcc/nios2-elf/10.1.1/../../../../../H-x86_64-pc-linux-gnu/nios2-elf/lib/mhw-mulx/libc.a(lib_a-memchr.o)
 .data          0x000000000001c9c8        0x0 /opt/intelFPGA/20.1.1/nios2eds/bin/gnu/H-x86_64-pc-linux-gnu/bin/../lib/gcc/nios2-elf/10.1.1/../../../../../H-x86_64-pc-linux-gnu/nios2-elf/lib/mhw-mulx/libc.a(lib_a-memset.o)
 .data          0x000000000001c9c8        0x0 /opt/intelFPGA/20.1.1/nios2eds/bin/gnu/H-x86_64-pc-linux-gnu/bin/../lib/gcc/nios2-elf/10.1.1/../../../../../H-x86_64-pc-linux-gnu/nios2-elf/lib/mhw-mulx/libc.a(lib_a-mprec.o)
 .data          0x000000000001c9c8        0x0 /opt/intelFPGA/20.1.1/nios2eds/bin/gnu/H-x86_64-pc-linux-gnu/bin/../lib/gcc/nios2-elf/10.1.1/../../../../../H-x86_64-pc-linux-gnu/nios2-elf/lib/mhw-mulx/libc.a(lib_a-sbrkr.o)
 .data          0x000000000001c9c8        0x0 /opt/intelFPGA/20.1.1/nios2eds/bin/gnu/H-x86_64-pc-linux-gnu/bin/../lib/gcc/nios2-elf/10.1.1/../../../../../H-x86_64-pc-linux-gnu/nios2-elf/lib/mhw-mulx/libc.a(lib_a-stdio.o)
 .data          0x000000000001c9c8        0x0 /opt/intelFPGA/20.1.1/nios2eds/bin/gnu/H-x86_64-pc-linux-gnu/bin/../lib/gcc/nios2-elf/10.1.1/../../../../../H-x86_64-pc-linux-gnu/nios2-elf/lib/mhw-mulx/libc.a(lib_a-strlen.o)
 .data          0x000000000001c9c8        0x0 /opt/intelFPGA/20.1.1/nios2eds/bin/gnu/H-x86_64-pc-linux-gnu/bin/../lib/gcc/nios2-elf/10.1.1/../../../../../H-x86_64-pc-linux-gnu/nios2-elf/lib/mhw-mulx/libc.a(lib_a-vfiprintf.o)
 .data          0x000000000001c9c8        0x0 /opt/intelFPGA/20.1.1/nios2eds/bin/gnu/H-x86_64-pc-linux-gnu/bin/../lib/gcc/nios2-elf/10.1.1/../../../../../H-x86_64-pc-linux-gnu/nios2-elf/lib/mhw-mulx/libc.a(lib_a-writer.o)
 .data          0x000000000001c9c8        0x0 /opt/intelFPGA/20.1.1/nios2eds/bin/gnu/H-x86_64-pc-linux-gnu/bin/../lib/gcc/nios2-elf/10.1.1/../../../../../H-x86_64-pc-linux-gnu/nios2-elf/lib/mhw-mulx/libc.a(closer.o)
 .data          0x000000000001c9c8        0x0 /opt/intelFPGA/20.1.1/nios2eds/bin/gnu/H-x86_64-pc-linux-gnu/bin/../lib/gcc/nios2-elf/10.1.1/../../../../../H-x86_64-pc-linux-gnu/nios2-elf/lib/mhw-mulx/libc.a(lib_a-assert.o)
 .data          0x000000000001c9c8        0x0 /opt/intelFPGA/20.1.1/nios2eds/bin/gnu/H-x86_64-pc-linux-gnu/bin/../lib/gcc/nios2-elf/10.1.1/../../../../../H-x86_64-pc-linux-gnu/nios2-elf/lib/mhw-mulx/libc.a(lib_a-callocr.o)
 .data          0x000000000001c9c8        0x0 /opt/intelFPGA/20.1.1/nios2eds/bin/gnu/H-x86_64-pc-linux-gnu/bin/../lib/gcc/nios2-elf/10.1.1/../../../../../H-x86_64-pc-linux-gnu/nios2-elf/lib/mhw-mulx/libc.a(lib_a-fclose.o)
 .data          0x000000000001c9c8        0x0 /opt/intelFPGA/20.1.1/nios2eds/bin/gnu/H-x86_64-pc-linux-gnu/bin/../lib/gcc/nios2-elf/10.1.1/../../../../../H-x86_64-pc-linux-gnu/nios2-elf/lib/mhw-mulx/libc.a(lib_a-fiprintf.o)
 .data          0x000000000001c9c8        0x0 /opt/intelFPGA/20.1.1/nios2eds/bin/gnu/H-x86_64-pc-linux-gnu/bin/../lib/gcc/nios2-elf/10.1.1/../../../../../H-x86_64-pc-linux-gnu/nios2-elf/lib/mhw-mulx/libc.a(lib_a-fputwc.o)
 .data          0x000000000001c9c8        0x0 /opt/intelFPGA/20.1.1/nios2eds/bin/gnu/H-x86_64-pc-linux-gnu/bin/../lib/gcc/nios2-elf/10.1.1/../../../../../H-x86_64-pc-linux-gnu/nios2-elf/lib/mhw-mulx/libc.a(lib_a-fstatr.o)
 .data          0x000000000001c9c8        0x0 /opt/intelFPGA/20.1.1/nios2eds/bin/gnu/H-x86_64-pc-linux-gnu/bin/../lib/gcc/nios2-elf/10.1.1/../../../../../H-x86_64-pc-linux-gnu/nios2-elf/lib/mhw-mulx/libc.a(lib_a-fvwrite.o)
 .data          0x000000000001c9c8        0x0 /opt/intelFPGA/20.1.1/nios2eds/bin/gnu/H-x86_64-pc-linux-gnu/bin/../lib/gcc/nios2-elf/10.1.1/../../../../../H-x86_64-pc-linux-gnu/nios2-elf/lib/mhw-mulx/libc.a(lib_a-isattyr.o)
 .data          0x000000000001c9c8        0x0 /opt/intelFPGA/20.1.1/nios2eds/bin/gnu/H-x86_64-pc-linux-gnu/bin/../lib/gcc/nios2-elf/10.1.1/../../../../../H-x86_64-pc-linux-gnu/nios2-elf/lib/mhw-mulx/libc.a(lib_a-locale.o)
 .data.__global_locale
                0x000000000001c9c8      0x16c /opt/intelFPGA/20.1.1/nios2eds/bin/gnu/H-x86_64-pc-linux-gnu/bin/../lib/gcc/nios2-elf/10.1.1/../../../../../H-x86_64-pc-linux-gnu/nios2-elf/lib/mhw-mulx/libc.a(lib_a-locale.o)
                0x000000000001c9c8                __global_locale
 .data          0x000000000001cb34        0x0 /opt/intelFPGA/20.1.1/nios2eds/bin/gnu/H-x86_64-pc-linux-gnu/bin/../lib/gcc/nios2-elf/10.1.1/../../../../../H-x86_64-pc-linux-gnu/nios2-elf/lib/mhw-mulx/libc.a(lib_a-lseekr.o)
 .data          0x000000000001cb34        0x0 /opt/intelFPGA/20.1.1/nios2eds/bin/gnu/H-x86_64-pc-linux-gnu/bin/../lib/gcc/nios2-elf/10.1.1/../../../../../H-x86_64-pc-linux-gnu/nios2-elf/lib/mhw-mulx/libc.a(lib_a-mbtowc_r.o)
 .data          0x000000000001cb34        0x0 /opt/intelFPGA/20.1.1/nios2eds/bin/gnu/H-x86_64-pc-linux-gnu/bin/../lib/gcc/nios2-elf/10.1.1/../../../../../H-x86_64-pc-linux-gnu/nios2-elf/lib/mhw-mulx/libc.a(lib_a-memmove.o)
 .data          0x000000000001cb34        0x0 /opt/intelFPGA/20.1.1/nios2eds/bin/gnu/H-x86_64-pc-linux-gnu/bin/../lib/gcc/nios2-elf/10.1.1/../../../../../H-x86_64-pc-linux-gnu/nios2-elf/lib/mhw-mulx/libc.a(lib_a-readr.o)
 .data          0x000000000001cb34        0x0 /opt/intelFPGA/20.1.1/nios2eds/bin/gnu/H-x86_64-pc-linux-gnu/bin/../lib/gcc/nios2-elf/10.1.1/../../../../../H-x86_64-pc-linux-gnu/nios2-elf/lib/mhw-mulx/libc.a(lib_a-reallocr.o)
 .data          0x000000000001cb34        0x0 /opt/intelFPGA/20.1.1/nios2eds/bin/gnu/H-x86_64-pc-linux-gnu/bin/../lib/gcc/nios2-elf/10.1.1/../../../../../H-x86_64-pc-linux-gnu/nios2-elf/lib/mhw-mulx/libc.a(lib_a-strcmp.o)
 .data          0x000000000001cb34        0x0 /opt/intelFPGA/20.1.1/nios2eds/bin/gnu/H-x86_64-pc-linux-gnu/bin/../lib/gcc/nios2-elf/10.1.1/../../../../../H-x86_64-pc-linux-gnu/nios2-elf/lib/mhw-mulx/libc.a(lib_a-vfiprintfr_1.o)
 .data          0x000000000001cb34        0x0 /opt/intelFPGA/20.1.1/nios2eds/bin/gnu/H-x86_64-pc-linux-gnu/bin/../lib/gcc/nios2-elf/10.1.1/../../../../../H-x86_64-pc-linux-gnu/nios2-elf/lib/mhw-mulx/libc.a(lib_a-wbuf.o)
 .data          0x000000000001cb34        0x0 /opt/intelFPGA/20.1.1/nios2eds/bin/gnu/H-x86_64-pc-linux-gnu/bin/../lib/gcc/nios2-elf/10.1.1/../../../../../H-x86_64-pc-linux-gnu/nios2-elf/lib/mhw-mulx/libc.a(lib_a-wcrtomb.o)
 .data          0x000000000001cb34        0x0 /opt/intelFPGA/20.1.1/nios2eds/bin/gnu/H-x86_64-pc-linux-gnu/bin/../lib/gcc/nios2-elf/10.1.1/../../../../../H-x86_64-pc-linux-gnu/nios2-elf/lib/mhw-mulx/libc.a(lib_a-wctomb_r.o)
 .data          0x000000000001cb34        0x0 /opt/intelFPGA/20.1.1/nios2eds/bin/gnu/H-x86_64-pc-linux-gnu/bin/../lib/gcc/nios2-elf/10.1.1/../../../../../H-x86_64-pc-linux-gnu/nios2-elf/lib/mhw-mulx/libc.a(lib_a-abort.o)
 .data          0x000000000001cb34        0x0 /opt/intelFPGA/20.1.1/nios2eds/bin/gnu/H-x86_64-pc-linux-gnu/bin/../lib/gcc/nios2-elf/10.1.1/../../../../../H-x86_64-pc-linux-gnu/nios2-elf/lib/mhw-mulx/libc.a(lib_a-ctype_.o)
 .data          0x000000000001cb34        0x0 /opt/intelFPGA/20.1.1/nios2eds/bin/gnu/H-x86_64-pc-linux-gnu/bin/../lib/gcc/nios2-elf/10.1.1/../../../../../H-x86_64-pc-linux-gnu/nios2-elf/lib/mhw-mulx/libc.a(lib_a-signal.o)
 .data          0x000000000001cb34        0x0 /opt/intelFPGA/20.1.1/nios2eds/bin/gnu/H-x86_64-pc-linux-gnu/bin/../lib/gcc/nios2-elf/10.1.1/../../../../../H-x86_64-pc-linux-gnu/nios2-elf/lib/mhw-mulx/libc.a(lib_a-signalr.o)
 .data          0x000000000001cb34        0x0 /opt/intelFPGA/20.1.1/nios2eds/bin/gnu/H-x86_64-pc-linux-gnu/bin/../lib/gcc/nios2-elf/10.1.1/mhw-mulx/libgcc.a(_udivdi3.o)
 .data          0x000000000001cb34        0x0 /opt/intelFPGA/20.1.1/nios2eds/bin/gnu/H-x86_64-pc-linux-gnu/bin/../lib/gcc/nios2-elf/10.1.1/mhw-mulx/libgcc.a(_umoddi3.o)
 .data          0x000000000001cb34        0x0 /opt/intelFPGA/20.1.1/nios2eds/bin/gnu/H-x86_64-pc-linux-gnu/bin/../lib/gcc/nios2-elf/10.1.1/mhw-mulx/libgcc.a(lib2-divmod.o)
 .data          0x000000000001cb34        0x0 /opt/intelFPGA/20.1.1/nios2eds/bin/gnu/H-x86_64-pc-linux-gnu/bin/../lib/gcc/nios2-elf/10.1.1/mhw-mulx/libgcc.a(adddf3.o)
 .data          0x000000000001cb34        0x0 /opt/intelFPGA/20.1.1/nios2eds/bin/gnu/H-x86_64-pc-linux-gnu/bin/../lib/gcc/nios2-elf/10.1.1/mhw-mulx/libgcc.a(divdf3.o)
 .data          0x000000000001cb34        0x0 /opt/intelFPGA/20.1.1/nios2eds/bin/gnu/H-x86_64-pc-linux-gnu/bin/../lib/gcc/nios2-elf/10.1.1/mhw-mulx/libgcc.a(eqdf2.o)
 .data          0x000000000001cb34        0x0 /opt/intelFPGA/20.1.1/nios2eds/bin/gnu/H-x86_64-pc-linux-gnu/bin/../lib/gcc/nios2-elf/10.1.1/mhw-mulx/libgcc.a(gedf2.o)
 .data          0x000000000001cb34        0x0 /opt/intelFPGA/20.1.1/nios2eds/bin/gnu/H-x86_64-pc-linux-gnu/bin/../lib/gcc/nios2-elf/10.1.1/mhw-mulx/libgcc.a(ledf2.o)
 .data          0x000000000001cb34        0x0 /opt/intelFPGA/20.1.1/nios2eds/bin/gnu/H-x86_64-pc-linux-gnu/bin/../lib/gcc/nios2-elf/10.1.1/mhw-mulx/libgcc.a(muldf3.o)
 .data          0x000000000001cb34        0x0 /opt/intelFPGA/20.1.1/nios2eds/bin/gnu/H-x86_64-pc-linux-gnu/bin/../lib/gcc/nios2-elf/10.1.1/mhw-mulx/libgcc.a(subdf3.o)
 .data          0x000000000001cb34        0x0 /opt/intelFPGA/20.1.1/nios2eds/bin/gnu/H-x86_64-pc-linux-gnu/bin/../lib/gcc/nios2-elf/10.1.1/mhw-mulx/libgcc.a(unorddf2.o)
 .data          0x000000000001cb34        0x0 /opt/intelFPGA/20.1.1/nios2eds/bin/gnu/H-x86_64-pc-linux-gnu/bin/../lib/gcc/nios2-elf/10.1.1/mhw-mulx/libgcc.a(fixdfsi.o)
 .data          0x000000000001cb34        0x0 /opt/intelFPGA/20.1.1/nios2eds/bin/gnu/H-x86_64-pc-linux-gnu/bin/../lib/gcc/nios2-elf/10.1.1/mhw-mulx/libgcc.a(floatsidf.o)
 .data          0x000000000001cb34        0x0 /opt/intelFPGA/20.1.1/nios2eds/bin/gnu/H-x86_64-pc-linux-gnu/bin/../lib/gcc/nios2-elf/10.1.1/mhw-mulx/libgcc.a(floatunsidf.o)
 .data          0x000000000001cb34        0x0 /opt/intelFPGA/20.1.1/nios2eds/bin/gnu/H-x86_64-pc-linux-gnu/bin/../lib/gcc/nios2-elf/10.1.1/mhw-mulx/libgcc.a(_clz.o)
 .data          0x000000000001cb34        0x0 /opt/intelFPGA/20.1.1/nios2eds/bin/gnu/H-x86_64-pc-linux-gnu/bin/../lib/gcc/nios2-elf/10.1.1/mhw-mulx/libgcc.a(_clzsi2.o)
 .data          0x000000000001cb34        0x0 ../ucosii_binary_game_hal_part1_bsp//libucosii_bsp.a(alt_close.o)
 .data          0x000000000001cb34      0x1a8 ../ucosii_binary_game_hal_part1_bsp//libucosii_bsp.a(alt_dev.o)
                0x000000000001cb34                alt_dev_null
                0x000000000001cb5c                alt_fd_list
 .data          0x000000000001ccdc        0x0 ../ucosii_binary_game_hal_part1_bsp//libucosii_bsp.a(alt_errno.o)
 .data          0x000000000001ccdc        0x0 ../ucosii_binary_game_hal_part1_bsp//libucosii_bsp.a(alt_exit.o)
 .data          0x000000000001ccdc        0x0 ../ucosii_binary_game_hal_part1_bsp//libucosii_bsp.a(alt_fstat.o)
 .data          0x000000000001ccdc        0x0 ../ucosii_binary_game_hal_part1_bsp//libucosii_bsp.a(alt_getpid.o)
 .data          0x000000000001ccdc        0x0 ../ucosii_binary_game_hal_part1_bsp//libucosii_bsp.a(alt_gettod.o)
 .data          0x000000000001ccdc        0x0 ../ucosii_binary_game_hal_part1_bsp//libucosii_bsp.a(alt_isatty.o)
 .data          0x000000000001ccdc        0x0 ../ucosii_binary_game_hal_part1_bsp//libucosii_bsp.a(alt_kill.o)
 .data          0x000000000001ccdc        0x0 ../ucosii_binary_game_hal_part1_bsp//libucosii_bsp.a(alt_load.o)
 .data          0x000000000001ccdc        0x0 ../ucosii_binary_game_hal_part1_bsp//libucosii_bsp.a(alt_lseek.o)
 .data          0x000000000001ccdc        0x0 ../ucosii_binary_game_hal_part1_bsp//libucosii_bsp.a(alt_main.o)
 .data          0x000000000001ccdc        0x0 ../ucosii_binary_game_hal_part1_bsp//libucosii_bsp.a(alt_read.o)
 .data          0x000000000001ccdc        0x0 ../ucosii_binary_game_hal_part1_bsp//libucosii_bsp.a(alt_release_fd.o)
 .data          0x000000000001ccdc        0x0 ../ucosii_binary_game_hal_part1_bsp//libucosii_bsp.a(alt_sbrk.o)
 .data          0x000000000001ccdc        0x0 ../ucosii_binary_game_hal_part1_bsp//libucosii_bsp.a(alt_tick.o)
 .data          0x000000000001ccdc        0x0 ../ucosii_binary_game_hal_part1_bsp//libucosii_bsp.a(alt_write.o)
 .data          0x000000000001ccdc        0x0 ../ucosii_binary_game_hal_part1_bsp//libucosii_bsp.a(alt_env_lock.o)
 .data          0x000000000001ccdc        0x0 ../ucosii_binary_game_hal_part1_bsp//libucosii_bsp.a(alt_malloc_lock.o)
 .data          0x000000000001ccdc        0x0 ../ucosii_binary_game_hal_part1_bsp//libucosii_bsp.a(os_core.o)
 .data          0x000000000001ccdc        0x0 ../ucosii_binary_game_hal_part1_bsp//libucosii_bsp.a(os_dbg.o)
 .data          0x000000000001ccdc        0x0 ../ucosii_binary_game_hal_part1_bsp//libucosii_bsp.a(os_flag.o)
 .data          0x000000000001ccdc        0x0 ../ucosii_binary_game_hal_part1_bsp//libucosii_bsp.a(os_mem.o)
 .data          0x000000000001ccdc        0x0 ../ucosii_binary_game_hal_part1_bsp//libucosii_bsp.a(os_mutex.o)
 .data          0x000000000001ccdc        0x0 ../ucosii_binary_game_hal_part1_bsp//libucosii_bsp.a(os_q.o)
 .data          0x000000000001ccdc        0x0 ../ucosii_binary_game_hal_part1_bsp//libucosii_bsp.a(os_sem.o)
 .data          0x000000000001ccdc        0x0 ../ucosii_binary_game_hal_part1_bsp//libucosii_bsp.a(os_task.o)
 .data          0x000000000001ccdc        0x0 ../ucosii_binary_game_hal_part1_bsp//libucosii_bsp.a(os_time.o)
 .data          0x000000000001ccdc     0x1378 ../ucosii_binary_game_hal_part1_bsp//libucosii_bsp.a(alt_sys_init.o)
 .data          0x000000000001e054        0x0 ../ucosii_binary_game_hal_part1_bsp//libucosii_bsp.a(altera_avalon_jtag_uart_fd.o)
 .data          0x000000000001e054        0x0 ../ucosii_binary_game_hal_part1_bsp//libucosii_bsp.a(altera_avalon_jtag_uart_init.o)
 .data          0x000000000001e054        0x0 ../ucosii_binary_game_hal_part1_bsp//libucosii_bsp.a(altera_avalon_jtag_uart_ioctl.o)
 .data          0x000000000001e054        0x0 ../ucosii_binary_game_hal_part1_bsp//libucosii_bsp.a(altera_avalon_jtag_uart_read.o)
 .data          0x000000000001e054        0x0 ../ucosii_binary_game_hal_part1_bsp//libucosii_bsp.a(altera_avalon_jtag_uart_write.o)
 .data          0x000000000001e054        0x0 ../ucosii_binary_game_hal_part1_bsp//libucosii_bsp.a(altera_avalon_timer_sc.o)
 .data          0x000000000001e054        0x0 ../ucosii_binary_game_hal_part1_bsp//libucosii_bsp.a(altera_up_avalon_character_lcd.o)
 .data          0x000000000001e054        0x0 ../ucosii_binary_game_hal_part1_bsp//libucosii_bsp.a(altera_up_avalon_irda.o)
 .data          0x000000000001e054        0x0 ../ucosii_binary_game_hal_part1_bsp//libucosii_bsp.a(altera_up_avalon_ps2.o)
 .data          0x000000000001e054        0x0 ../ucosii_binary_game_hal_part1_bsp//libucosii_bsp.a(altera_up_avalon_rs232.o)
 .data          0x000000000001e054        0x0 ../ucosii_binary_game_hal_part1_bsp//libucosii_bsp.a(alt_alarm_start.o)
 .data          0x000000000001e054        0x0 ../ucosii_binary_game_hal_part1_bsp//libucosii_bsp.a(alt_dcache_flush_all.o)
 .data          0x000000000001e054        0x0 ../ucosii_binary_game_hal_part1_bsp//libucosii_bsp.a(alt_dev_llist_insert.o)
 .data          0x000000000001e054        0x0 ../ucosii_binary_game_hal_part1_bsp//libucosii_bsp.a(alt_do_ctors.o)
 .data          0x000000000001e054        0x0 ../ucosii_binary_game_hal_part1_bsp//libucosii_bsp.a(alt_do_dtors.o)
 .data          0x000000000001e054        0x0 ../ucosii_binary_game_hal_part1_bsp//libucosii_bsp.a(alt_find_dev.o)
 .data          0x000000000001e054        0x0 ../ucosii_binary_game_hal_part1_bsp//libucosii_bsp.a(alt_icache_flush_all.o)
 .data          0x000000000001e054        0x0 ../ucosii_binary_game_hal_part1_bsp//libucosii_bsp.a(alt_io_redirect.o)
 .data          0x000000000001e054        0x0 ../ucosii_binary_game_hal_part1_bsp//libucosii_bsp.a(alt_irq_register.o)
 .data          0x000000000001e054        0x0 ../ucosii_binary_game_hal_part1_bsp//libucosii_bsp.a(alt_irq_vars.o)
 .data          0x000000000001e054        0x0 ../ucosii_binary_game_hal_part1_bsp//libucosii_bsp.a(alt_open.o)
 .data          0x000000000001e054        0x0 ../ucosii_binary_game_hal_part1_bsp//libucosii_bsp.a(altera_nios2_gen2_irq.o)
 .data          0x000000000001e054        0x0 ../ucosii_binary_game_hal_part1_bsp//libucosii_bsp.a(os_cpu_a.o)
 .data          0x000000000001e054        0x0 ../ucosii_binary_game_hal_part1_bsp//libucosii_bsp.a(os_cpu_c.o)
 .data          0x000000000001e054        0x0 ../ucosii_binary_game_hal_part1_bsp//libucosii_bsp.a(alt_find_file.o)
 .data          0x000000000001e054        0x0 ../ucosii_binary_game_hal_part1_bsp//libucosii_bsp.a(alt_get_fd.o)
 .data          0x000000000001e054        0x0 ../ucosii_binary_game_hal_part1_bsp//libucosii_bsp.a(alt_icache_flush.o)
 .data          0x000000000001e054        0x0 ../ucosii_binary_game_hal_part1_bsp//libucosii_bsp.a(alt_irq_entry.o)
 .data          0x000000000001e054        0x0 ../ucosii_binary_game_hal_part1_bsp//libucosii_bsp.a(alt_irq_handler.o)
 .data          0x000000000001e054        0x0 ../ucosii_binary_game_hal_part1_bsp//libucosii_bsp.a(alt_exception_entry.o)
 .data          0x000000000001e054        0x0 ../ucosii_binary_game_hal_part1_bsp//libucosii_bsp.a(alt_instruction_exception_entry.o)
 .data          0x000000000001e054        0x0 /opt/intelFPGA/20.1.1/nios2eds/bin/gnu/H-x86_64-pc-linux-gnu/bin/../lib/gcc/nios2-elf/10.1.1/../../../../../H-x86_64-pc-linux-gnu/nios2-elf/lib/mhw-mulx/libc.a(lib_a-atexit.o)
 .data          0x000000000001e054        0x0 /opt/intelFPGA/20.1.1/nios2eds/bin/gnu/H-x86_64-pc-linux-gnu/bin/../lib/gcc/nios2-elf/10.1.1/../../../../../H-x86_64-pc-linux-gnu/nios2-elf/lib/mhw-mulx/libc.a(lib_a-exit.o)
 .data          0x000000000001e054        0x0 /opt/intelFPGA/20.1.1/nios2eds/bin/gnu/H-x86_64-pc-linux-gnu/bin/../lib/gcc/nios2-elf/10.1.1/../../../../../H-x86_64-pc-linux-gnu/nios2-elf/lib/mhw-mulx/libc.a(lib_a-memcmp.o)
 .data          0x000000000001e054        0x0 /opt/intelFPGA/20.1.1/nios2eds/bin/gnu/H-x86_64-pc-linux-gnu/bin/../lib/gcc/nios2-elf/10.1.1/../../../../../H-x86_64-pc-linux-gnu/nios2-elf/lib/mhw-mulx/libc.a(lib_a-__atexit.o)
 .data          0x000000000001e054        0x0 /opt/intelFPGA/20.1.1/nios2eds/bin/gnu/H-x86_64-pc-linux-gnu/bin/../lib/gcc/nios2-elf/10.1.1/../../../../../H-x86_64-pc-linux-gnu/nios2-elf/lib/mhw-mulx/libc.a(lib_a-__call_atexit.o)
                0x0000000000026054                _gp = ABSOLUTE ((. + 0x8000))
                [!provide]                        PROVIDE (gp = _gp)
 *(.rwdata .rwdata.*)
 *(.sdata .sdata.* .gnu.linkonce.s.*)
 .sdata         0x000000000001e054        0x8 obj/default/hello_ucosii.o
                0x000000000001e054                user_answer
                0x000000000001e058                countdown_timer_value
 .sdata._global_impure_ptr
                0x000000000001e05c        0x4 /opt/intelFPGA/20.1.1/nios2eds/bin/gnu/H-x86_64-pc-linux-gnu/bin/../lib/gcc/nios2-elf/10.1.1/../../../../../H-x86_64-pc-linux-gnu/nios2-elf/lib/mhw-mulx/libc.a(lib_a-impure.o)
                0x000000000001e05c                _global_impure_ptr
 .sdata._impure_ptr
                0x000000000001e060        0x4 /opt/intelFPGA/20.1.1/nios2eds/bin/gnu/H-x86_64-pc-linux-gnu/bin/../lib/gcc/nios2-elf/10.1.1/../../../../../H-x86_64-pc-linux-gnu/nios2-elf/lib/mhw-mulx/libc.a(lib_a-impure.o)
                0x000000000001e060                _impure_ptr
 .sdata.__malloc_sbrk_base
                0x000000000001e064        0x4 /opt/intelFPGA/20.1.1/nios2eds/bin/gnu/H-x86_64-pc-linux-gnu/bin/../lib/gcc/nios2-elf/10.1.1/../../../../../H-x86_64-pc-linux-gnu/nios2-elf/lib/mhw-mulx/libc.a(lib_a-mallocr.o)
                0x000000000001e064                __malloc_sbrk_base
 .sdata.__malloc_trim_threshold
                0x000000000001e068        0x4 /opt/intelFPGA/20.1.1/nios2eds/bin/gnu/H-x86_64-pc-linux-gnu/bin/../lib/gcc/nios2-elf/10.1.1/../../../../../H-x86_64-pc-linux-gnu/nios2-elf/lib/mhw-mulx/libc.a(lib_a-mallocr.o)
                0x000000000001e068                __malloc_trim_threshold
 .sdata         0x000000000001e06c       0x14 ../ucosii_binary_game_hal_part1_bsp//libucosii_bsp.a(alt_dev.o)
                0x000000000001e06c                alt_fs_list
                0x000000000001e074                alt_dev_list
                0x000000000001e07c                alt_max_fd
 .sdata         0x000000000001e080        0x4 ../ucosii_binary_game_hal_part1_bsp//libucosii_bsp.a(alt_errno.o)
                0x000000000001e080                alt_errno
 .sdata         0x000000000001e084        0x4 ../ucosii_binary_game_hal_part1_bsp//libucosii_bsp.a(alt_sbrk.o)
 .sdata         0x000000000001e088        0x8 ../ucosii_binary_game_hal_part1_bsp//libucosii_bsp.a(alt_tick.o)
                0x000000000001e088                alt_alarm_list
 .sdata         0x000000000001e090        0x4 ../ucosii_binary_game_hal_part1_bsp//libucosii_bsp.a(alt_env_lock.o)
 .sdata         0x000000000001e094        0x4 ../ucosii_binary_game_hal_part1_bsp//libucosii_bsp.a(alt_malloc_lock.o)
 .sdata         0x000000000001e098       0x72 ../ucosii_binary_game_hal_part1_bsp//libucosii_bsp.a(os_dbg.o)
                0x000000000001e098                OSDebugEn
                0x000000000001e09c                OSEndiannessTest
                0x000000000001e0a0                OSEventEn
                0x000000000001e0a2                OSEventMax
                0x000000000001e0a4                OSEventNameSize
                0x000000000001e0a6                OSEventSize
                0x000000000001e0a8                OSEventTblSize
                0x000000000001e0aa                OSEventMultiEn
                0x000000000001e0ac                OSFlagEn
                0x000000000001e0ae                OSFlagGrpSize
                0x000000000001e0b0                OSFlagNodeSize
                0x000000000001e0b2                OSFlagWidth
                0x000000000001e0b4                OSFlagMax
                0x000000000001e0b6                OSFlagNameSize
                0x000000000001e0b8                OSLowestPrio
                0x000000000001e0ba                OSMboxEn
                0x000000000001e0bc                OSMemEn
                0x000000000001e0be                OSMemMax
                0x000000000001e0c0                OSMemNameSize
                0x000000000001e0c2                OSMemSize
                0x000000000001e0c4                OSMemTblSize
                0x000000000001e0c6                OSMutexEn
                0x000000000001e0c8                OSPtrSize
                0x000000000001e0ca                OSQEn
                0x000000000001e0cc                OSQMax
                0x000000000001e0ce                OSQSize
                0x000000000001e0d0                OSRdyTblSize
                0x000000000001e0d2                OSSemEn
                0x000000000001e0d4                OSStkWidth
                0x000000000001e0d6                OSTaskCreateEn
                0x000000000001e0d8                OSTaskCreateExtEn
                0x000000000001e0da                OSTaskDelEn
                0x000000000001e0dc                OSTaskIdleStkSize
                0x000000000001e0de                OSTaskProfileEn
                0x000000000001e0e0                OSTaskMax
                0x000000000001e0e2                OSTaskNameSize
                0x000000000001e0e4                OSTaskStatEn
                0x000000000001e0e6                OSTaskStatStkSize
                0x000000000001e0e8                OSTaskStatStkChkEn
                0x000000000001e0ea                OSTaskSwHookEn
                0x000000000001e0ec                OSTCBPrioTblMax
                0x000000000001e0ee                OSTCBSize
                0x000000000001e0f0                OSTicksPerSec
                0x000000000001e0f2                OSTimeTickHookEn
                0x000000000001e0f4                OSVersionNbr
                0x000000000001e0f6                OSTmrEn
                0x000000000001e0f8                OSTmrCfgMax
                0x000000000001e0fa                OSTmrCfgNameSize
                0x000000000001e0fc                OSTmrCfgWheelSize
                0x000000000001e0fe                OSTmrCfgTicksPerSec
                0x000000000001e100                OSTmrSize
                0x000000000001e102                OSTmrTblSize
                0x000000000001e104                OSTmrWheelSize
                0x000000000001e106                OSTmrWheelTblSize
                0x000000000001e108                OSDataSize
 *fill*         0x000000000001e10a        0x2 
 .sdata         0x000000000001e10c        0x4 ../ucosii_binary_game_hal_part1_bsp//libucosii_bsp.a(alt_irq_vars.o)
                0x000000000001e10c                alt_priority_mask
 *(.sdata2 .sdata2.* .gnu.linkonce.s2.*)
                0x000000000001e110                . = ALIGN (0x4)
                0x000000000001e110                _edata = ABSOLUTE (.)
                [!provide]                        PROVIDE (edata = ABSOLUTE (.))
                0x000000000001e110                PROVIDE (__ram_rwdata_end = ABSOLUTE (.))
                0x000000000001e110                PROVIDE (__flash_rwdata_start = LOADADDR (.rwdata))

.bss            0x0000000000020084     0xf478
                0x0000000000020084                __bss_start = ABSOLUTE (.)
                [!provide]                        PROVIDE (__sbss_start = ABSOLUTE (.))
                [!provide]                        PROVIDE (___sbss_start = ABSOLUTE (.))
 *(.dynsbss)
 *(.sbss .sbss.* .gnu.linkonce.sb.*)
 .sbss          0x0000000000020084       0x4c obj/default/hello_ucosii.o
                0x0000000000020084                StateMutex
                0x0000000000020088                TimerMutex
                0x000000000002008c                GameMutex
                0x0000000000020090                stateFlag
                0x0000000000020094                MsgQ
                0x0000000000020098                SemRandom
                0x000000000002009c                SemPower
                0x00000000000200a0                attempt_count
                0x00000000000200a4                question_count
                0x00000000000200a8                system_answer
                0x00000000000200ac                current_score
                0x00000000000200b0                seconds
                0x00000000000200b4                minutes
                0x00000000000200b8                elapsed_timer_value
                0x00000000000200bc                ones_place
                0x00000000000200c0                tens_place
                0x00000000000200c4                huns_place
                0x00000000000200c8                thos_place
                0x00000000000200cc                state
 .sbss.errno    0x00000000000200d0        0x4 /opt/intelFPGA/20.1.1/nios2eds/bin/gnu/H-x86_64-pc-linux-gnu/bin/../lib/gcc/nios2-elf/10.1.1/../../../../../H-x86_64-pc-linux-gnu/nios2-elf/lib/mhw-mulx/libc.a(lib_a-int_errno.o)
                0x00000000000200d0                errno
 .sbss.__malloc_max_total_mem
                0x00000000000200d4        0x4 /opt/intelFPGA/20.1.1/nios2eds/bin/gnu/H-x86_64-pc-linux-gnu/bin/../lib/gcc/nios2-elf/10.1.1/../../../../../H-x86_64-pc-linux-gnu/nios2-elf/lib/mhw-mulx/libc.a(lib_a-mallocr.o)
                0x00000000000200d4                __malloc_max_total_mem
 .sbss.__malloc_max_sbrked_mem
                0x00000000000200d8        0x4 /opt/intelFPGA/20.1.1/nios2eds/bin/gnu/H-x86_64-pc-linux-gnu/bin/../lib/gcc/nios2-elf/10.1.1/../../../../../H-x86_64-pc-linux-gnu/nios2-elf/lib/mhw-mulx/libc.a(lib_a-mallocr.o)
                0x00000000000200d8                __malloc_max_sbrked_mem
 .sbss.__malloc_top_pad
                0x00000000000200dc        0x4 /opt/intelFPGA/20.1.1/nios2eds/bin/gnu/H-x86_64-pc-linux-gnu/bin/../lib/gcc/nios2-elf/10.1.1/../../../../../H-x86_64-pc-linux-gnu/nios2-elf/lib/mhw-mulx/libc.a(lib_a-mallocr.o)
                0x00000000000200dc                __malloc_top_pad
 .sbss._PathLocale
                0x00000000000200e0        0x4 /opt/intelFPGA/20.1.1/nios2eds/bin/gnu/H-x86_64-pc-linux-gnu/bin/../lib/gcc/nios2-elf/10.1.1/../../../../../H-x86_64-pc-linux-gnu/nios2-elf/lib/mhw-mulx/libc.a(lib_a-locale.o)
                0x00000000000200e0                _PathLocale
 .sbss          0x00000000000200e4        0x4 ../ucosii_binary_game_hal_part1_bsp//libucosii_bsp.a(alt_dev.o)
                0x00000000000200e4                alt_fd_list_lock
 .sbss          0x00000000000200e8        0x8 ../ucosii_binary_game_hal_part1_bsp//libucosii_bsp.a(alt_gettod.o)
                0x00000000000200e8                alt_timezone
 .sbss          0x00000000000200f0        0xc ../ucosii_binary_game_hal_part1_bsp//libucosii_bsp.a(alt_main.o)
                0x00000000000200f0                alt_argc
                0x00000000000200f4                alt_argv
                0x00000000000200f8                alt_envp
 .sbss          0x00000000000200fc        0x8 ../ucosii_binary_game_hal_part1_bsp//libucosii_bsp.a(alt_tick.o)
                0x00000000000200fc                _alt_tick_rate
                0x0000000000020100                _alt_nticks
 .sbss          0x0000000000020104        0x8 ../ucosii_binary_game_hal_part1_bsp//libucosii_bsp.a(alt_env_lock.o)
                0x0000000000020104                alt_envsem
 .sbss          0x000000000002010c        0x8 ../ucosii_binary_game_hal_part1_bsp//libucosii_bsp.a(alt_malloc_lock.o)
                0x000000000002010c                alt_heapsem
 .sbss          0x0000000000020114       0x48 ../ucosii_binary_game_hal_part1_bsp//libucosii_bsp.a(os_core.o)
                0x0000000000020114                OSCtxSwCtr
                0x0000000000020118                OSEventFreeList
                0x000000000002011c                OSFlagFreeList
                0x0000000000020120                OSCPUUsage
                0x0000000000020124                OSIdleCtrMax
                0x0000000000020128                OSIdleCtrRun
                0x000000000002012c                OSStatRdy
                0x000000000002012d                OSIntNesting
                0x000000000002012e                OSLockNesting
                0x000000000002012f                OSPrioCur
                0x0000000000020130                OSPrioHighRdy
                0x0000000000020131                OSRdyGrp
                0x0000000000020132                OSRdyTbl
                0x0000000000020135                OSRunning
                0x0000000000020136                OSTaskCtr
                0x0000000000020138                OSIdleCtr
                0x000000000002013c                OSTCBCur
                0x0000000000020140                OSTCBFreeList
                0x0000000000020144                OSTCBHighRdy
                0x0000000000020148                OSTCBList
                0x000000000002014c                OSTickStepState
                0x0000000000020150                OSMemFreeList
                0x0000000000020154                OSQFreeList
                0x0000000000020158                OSTime
 .sbss          0x000000000002015c        0x4 ../ucosii_binary_game_hal_part1_bsp//libucosii_bsp.a(alt_irq_vars.o)
                0x000000000002015c                alt_irq_active
 .sbss          0x0000000000020160        0x4 ../ucosii_binary_game_hal_part1_bsp//libucosii_bsp.a(alt_instruction_exception_entry.o)
                0x0000000000020160                alt_instruction_exception_handler
 *(.sbss2 .sbss2.* .gnu.linkonce.sb2.*)
 *(.scommon)
                [!provide]                        PROVIDE (__sbss_end = ABSOLUTE (.))
                [!provide]                        PROVIDE (___sbss_end = ABSOLUTE (.))
 *(.dynbss)
 *(.bss .bss.* .gnu.linkonce.b.*)
 .bss           0x0000000000020164        0x0 ../ucosii_binary_game_hal_part1_bsp//obj/HAL/src/crt0.o
 .bss           0x0000000000020164     0xc040 obj/default/hello_ucosii.o
                0x0000000000020164                Msg1Storage
                0x00000000000201a4                power_switch_task_stk
                0x00000000000221a4                pushbutton_task_stk
                0x00000000000241a4                keys_task_stk
                0x00000000000261a4                timer_counter_task_stk
                0x00000000000281a4                game_task_stk
                0x000000000002a1a4                lcdhex_display_task_stk
 .bss           0x000000000002c1a4        0x0 /opt/intelFPGA/20.1.1/nios2eds/bin/gnu/H-x86_64-pc-linux-gnu/bin/../lib/gcc/nios2-elf/10.1.1/../../../../../H-x86_64-pc-linux-gnu/nios2-elf/lib/mhw-mulx/libc.a(lib_a-memcpy.o)
 .bss           0x000000000002c1a4        0x0 /opt/intelFPGA/20.1.1/nios2eds/bin/gnu/H-x86_64-pc-linux-gnu/bin/../lib/gcc/nios2-elf/10.1.1/../../../../../H-x86_64-pc-linux-gnu/nios2-elf/lib/mhw-mulx/libc.a(lib_a-printf.o)
 .bss           0x000000000002c1a4        0x0 /opt/intelFPGA/20.1.1/nios2eds/bin/gnu/H-x86_64-pc-linux-gnu/bin/../lib/gcc/nios2-elf/10.1.1/../../../../../H-x86_64-pc-linux-gnu/nios2-elf/lib/mhw-mulx/libc.a(lib_a-rand.o)
 .bss           0x000000000002c1a4        0x0 /opt/intelFPGA/20.1.1/nios2eds/bin/gnu/H-x86_64-pc-linux-gnu/bin/../lib/gcc/nios2-elf/10.1.1/../../../../../H-x86_64-pc-linux-gnu/nios2-elf/lib/mhw-mulx/libc.a(lib_a-time.o)
 .bss           0x000000000002c1a4        0x0 /opt/intelFPGA/20.1.1/nios2eds/bin/gnu/H-x86_64-pc-linux-gnu/bin/../lib/gcc/nios2-elf/10.1.1/../../../../../H-x86_64-pc-linux-gnu/nios2-elf/lib/mhw-mulx/libc.a(lib_a-vfprintf.o)
 .bss           0x000000000002c1a4        0x0 /opt/intelFPGA/20.1.1/nios2eds/bin/gnu/H-x86_64-pc-linux-gnu/bin/../lib/gcc/nios2-elf/10.1.1/../../../../../H-x86_64-pc-linux-gnu/nios2-elf/lib/mhw-mulx/libc.a(lib_a-wsetup.o)
 .bss           0x000000000002c1a4        0x0 /opt/intelFPGA/20.1.1/nios2eds/bin/gnu/H-x86_64-pc-linux-gnu/bin/../lib/gcc/nios2-elf/10.1.1/../../../../../H-x86_64-pc-linux-gnu/nios2-elf/lib/mhw-mulx/libc.a(lib_a-dtoa.o)
 .bss           0x000000000002c1a4        0x0 /opt/intelFPGA/20.1.1/nios2eds/bin/gnu/H-x86_64-pc-linux-gnu/bin/../lib/gcc/nios2-elf/10.1.1/../../../../../H-x86_64-pc-linux-gnu/nios2-elf/lib/mhw-mulx/libc.a(lib_a-fflush.o)
 .bss           0x000000000002c1a4        0x0 /opt/intelFPGA/20.1.1/nios2eds/bin/gnu/H-x86_64-pc-linux-gnu/bin/../lib/gcc/nios2-elf/10.1.1/../../../../../H-x86_64-pc-linux-gnu/nios2-elf/lib/mhw-mulx/libc.a(lib_a-findfp.o)
 .bss           0x000000000002c1a4        0x0 /opt/intelFPGA/20.1.1/nios2eds/bin/gnu/H-x86_64-pc-linux-gnu/bin/../lib/gcc/nios2-elf/10.1.1/../../../../../H-x86_64-pc-linux-gnu/nios2-elf/lib/mhw-mulx/libc.a(lib_a-freer.o)
 .bss           0x000000000002c1a4        0x0 /opt/intelFPGA/20.1.1/nios2eds/bin/gnu/H-x86_64-pc-linux-gnu/bin/../lib/gcc/nios2-elf/10.1.1/../../../../../H-x86_64-pc-linux-gnu/nios2-elf/lib/mhw-mulx/libc.a(lib_a-fwalk.o)
 .bss           0x000000000002c1a4        0x0 /opt/intelFPGA/20.1.1/nios2eds/bin/gnu/H-x86_64-pc-linux-gnu/bin/../lib/gcc/nios2-elf/10.1.1/../../../../../H-x86_64-pc-linux-gnu/nios2-elf/lib/mhw-mulx/libc.a(lib_a-gettimeofdayr.o)
 .bss           0x000000000002c1a4        0x0 /opt/intelFPGA/20.1.1/nios2eds/bin/gnu/H-x86_64-pc-linux-gnu/bin/../lib/gcc/nios2-elf/10.1.1/../../../../../H-x86_64-pc-linux-gnu/nios2-elf/lib/mhw-mulx/libc.a(lib_a-impure.o)
 .bss           0x000000000002c1a4        0x0 /opt/intelFPGA/20.1.1/nios2eds/bin/gnu/H-x86_64-pc-linux-gnu/bin/../lib/gcc/nios2-elf/10.1.1/../../../../../H-x86_64-pc-linux-gnu/nios2-elf/lib/mhw-mulx/libc.a(lib_a-int_errno.o)
 .bss           0x000000000002c1a4        0x0 /opt/intelFPGA/20.1.1/nios2eds/bin/gnu/H-x86_64-pc-linux-gnu/bin/../lib/gcc/nios2-elf/10.1.1/../../../../../H-x86_64-pc-linux-gnu/nios2-elf/lib/mhw-mulx/libc.a(lib_a-localeconv.o)
 .bss           0x000000000002c1a4        0x0 /opt/intelFPGA/20.1.1/nios2eds/bin/gnu/H-x86_64-pc-linux-gnu/bin/../lib/gcc/nios2-elf/10.1.1/../../../../../H-x86_64-pc-linux-gnu/nios2-elf/lib/mhw-mulx/libc.a(lib_a-makebuf.o)
 .bss           0x000000000002c1a4        0x0 /opt/intelFPGA/20.1.1/nios2eds/bin/gnu/H-x86_64-pc-linux-gnu/bin/../lib/gcc/nios2-elf/10.1.1/../../../../../H-x86_64-pc-linux-gnu/nios2-elf/lib/mhw-mulx/libc.a(lib_a-mallocr.o)
 .bss.__malloc_current_mallinfo
                0x000000000002c1a4       0x28 /opt/intelFPGA/20.1.1/nios2eds/bin/gnu/H-x86_64-pc-linux-gnu/bin/../lib/gcc/nios2-elf/10.1.1/../../../../../H-x86_64-pc-linux-gnu/nios2-elf/lib/mhw-mulx/libc.a(lib_a-mallocr.o)
                0x000000000002c1a4                __malloc_current_mallinfo
 .bss           0x000000000002c1cc        0x0 /opt/intelFPGA/20.1.1/nios2eds/bin/gnu/H-x86_64-pc-linux-gnu/bin/../lib/gcc/nios2-elf/10.1.1/../../../../../H-x86_64-pc-linux-gnu/nios2-elf/lib/mhw-mulx/libc.a(lib_a-memchr.o)
 .bss           0x000000000002c1cc        0x0 /opt/intelFPGA/20.1.1/nios2eds/bin/gnu/H-x86_64-pc-linux-gnu/bin/../lib/gcc/nios2-elf/10.1.1/../../../../../H-x86_64-pc-linux-gnu/nios2-elf/lib/mhw-mulx/libc.a(lib_a-memset.o)
 .bss           0x000000000002c1cc        0x0 /opt/intelFPGA/20.1.1/nios2eds/bin/gnu/H-x86_64-pc-linux-gnu/bin/../lib/gcc/nios2-elf/10.1.1/../../../../../H-x86_64-pc-linux-gnu/nios2-elf/lib/mhw-mulx/libc.a(lib_a-mprec.o)
 .bss           0x000000000002c1cc        0x0 /opt/intelFPGA/20.1.1/nios2eds/bin/gnu/H-x86_64-pc-linux-gnu/bin/../lib/gcc/nios2-elf/10.1.1/../../../../../H-x86_64-pc-linux-gnu/nios2-elf/lib/mhw-mulx/libc.a(lib_a-sbrkr.o)
 .bss           0x000000000002c1cc        0x0 /opt/intelFPGA/20.1.1/nios2eds/bin/gnu/H-x86_64-pc-linux-gnu/bin/../lib/gcc/nios2-elf/10.1.1/../../../../../H-x86_64-pc-linux-gnu/nios2-elf/lib/mhw-mulx/libc.a(lib_a-stdio.o)
 .bss           0x000000000002c1cc        0x0 /opt/intelFPGA/20.1.1/nios2eds/bin/gnu/H-x86_64-pc-linux-gnu/bin/../lib/gcc/nios2-elf/10.1.1/../../../../../H-x86_64-pc-linux-gnu/nios2-elf/lib/mhw-mulx/libc.a(lib_a-strlen.o)
 .bss           0x000000000002c1cc        0x0 /opt/intelFPGA/20.1.1/nios2eds/bin/gnu/H-x86_64-pc-linux-gnu/bin/../lib/gcc/nios2-elf/10.1.1/../../../../../H-x86_64-pc-linux-gnu/nios2-elf/lib/mhw-mulx/libc.a(lib_a-vfiprintf.o)
 .bss           0x000000000002c1cc        0x0 /opt/intelFPGA/20.1.1/nios2eds/bin/gnu/H-x86_64-pc-linux-gnu/bin/../lib/gcc/nios2-elf/10.1.1/../../../../../H-x86_64-pc-linux-gnu/nios2-elf/lib/mhw-mulx/libc.a(lib_a-writer.o)
 .bss           0x000000000002c1cc        0x0 /opt/intelFPGA/20.1.1/nios2eds/bin/gnu/H-x86_64-pc-linux-gnu/bin/../lib/gcc/nios2-elf/10.1.1/../../../../../H-x86_64-pc-linux-gnu/nios2-elf/lib/mhw-mulx/libc.a(closer.o)
 .bss           0x000000000002c1cc        0x0 /opt/intelFPGA/20.1.1/nios2eds/bin/gnu/H-x86_64-pc-linux-gnu/bin/../lib/gcc/nios2-elf/10.1.1/../../../../../H-x86_64-pc-linux-gnu/nios2-elf/lib/mhw-mulx/libc.a(lib_a-assert.o)
 .bss           0x000000000002c1cc        0x0 /opt/intelFPGA/20.1.1/nios2eds/bin/gnu/H-x86_64-pc-linux-gnu/bin/../lib/gcc/nios2-elf/10.1.1/../../../../../H-x86_64-pc-linux-gnu/nios2-elf/lib/mhw-mulx/libc.a(lib_a-callocr.o)
 .bss           0x000000000002c1cc        0x0 /opt/intelFPGA/20.1.1/nios2eds/bin/gnu/H-x86_64-pc-linux-gnu/bin/../lib/gcc/nios2-elf/10.1.1/../../../../../H-x86_64-pc-linux-gnu/nios2-elf/lib/mhw-mulx/libc.a(lib_a-fclose.o)
 .bss           0x000000000002c1cc        0x0 /opt/intelFPGA/20.1.1/nios2eds/bin/gnu/H-x86_64-pc-linux-gnu/bin/../lib/gcc/nios2-elf/10.1.1/../../../../../H-x86_64-pc-linux-gnu/nios2-elf/lib/mhw-mulx/libc.a(lib_a-fiprintf.o)
 .bss           0x000000000002c1cc        0x0 /opt/intelFPGA/20.1.1/nios2eds/bin/gnu/H-x86_64-pc-linux-gnu/bin/../lib/gcc/nios2-elf/10.1.1/../../../../../H-x86_64-pc-linux-gnu/nios2-elf/lib/mhw-mulx/libc.a(lib_a-fputwc.o)
 .bss           0x000000000002c1cc        0x0 /opt/intelFPGA/20.1.1/nios2eds/bin/gnu/H-x86_64-pc-linux-gnu/bin/../lib/gcc/nios2-elf/10.1.1/../../../../../H-x86_64-pc-linux-gnu/nios2-elf/lib/mhw-mulx/libc.a(lib_a-fstatr.o)
 .bss           0x000000000002c1cc        0x0 /opt/intelFPGA/20.1.1/nios2eds/bin/gnu/H-x86_64-pc-linux-gnu/bin/../lib/gcc/nios2-elf/10.1.1/../../../../../H-x86_64-pc-linux-gnu/nios2-elf/lib/mhw-mulx/libc.a(lib_a-fvwrite.o)
 .bss           0x000000000002c1cc        0x0 /opt/intelFPGA/20.1.1/nios2eds/bin/gnu/H-x86_64-pc-linux-gnu/bin/../lib/gcc/nios2-elf/10.1.1/../../../../../H-x86_64-pc-linux-gnu/nios2-elf/lib/mhw-mulx/libc.a(lib_a-isattyr.o)
 .bss           0x000000000002c1cc        0x0 /opt/intelFPGA/20.1.1/nios2eds/bin/gnu/H-x86_64-pc-linux-gnu/bin/../lib/gcc/nios2-elf/10.1.1/../../../../../H-x86_64-pc-linux-gnu/nios2-elf/lib/mhw-mulx/libc.a(lib_a-locale.o)
 .bss           0x000000000002c1cc        0x0 /opt/intelFPGA/20.1.1/nios2eds/bin/gnu/H-x86_64-pc-linux-gnu/bin/../lib/gcc/nios2-elf/10.1.1/../../../../../H-x86_64-pc-linux-gnu/nios2-elf/lib/mhw-mulx/libc.a(lib_a-lseekr.o)
 .bss           0x000000000002c1cc        0x0 /opt/intelFPGA/20.1.1/nios2eds/bin/gnu/H-x86_64-pc-linux-gnu/bin/../lib/gcc/nios2-elf/10.1.1/../../../../../H-x86_64-pc-linux-gnu/nios2-elf/lib/mhw-mulx/libc.a(lib_a-mbtowc_r.o)
 .bss           0x000000000002c1cc        0x0 /opt/intelFPGA/20.1.1/nios2eds/bin/gnu/H-x86_64-pc-linux-gnu/bin/../lib/gcc/nios2-elf/10.1.1/../../../../../H-x86_64-pc-linux-gnu/nios2-elf/lib/mhw-mulx/libc.a(lib_a-memmove.o)
 .bss           0x000000000002c1cc        0x0 /opt/intelFPGA/20.1.1/nios2eds/bin/gnu/H-x86_64-pc-linux-gnu/bin/../lib/gcc/nios2-elf/10.1.1/../../../../../H-x86_64-pc-linux-gnu/nios2-elf/lib/mhw-mulx/libc.a(lib_a-readr.o)
 .bss           0x000000000002c1cc        0x0 /opt/intelFPGA/20.1.1/nios2eds/bin/gnu/H-x86_64-pc-linux-gnu/bin/../lib/gcc/nios2-elf/10.1.1/../../../../../H-x86_64-pc-linux-gnu/nios2-elf/lib/mhw-mulx/libc.a(lib_a-reallocr.o)
 .bss           0x000000000002c1cc        0x0 /opt/intelFPGA/20.1.1/nios2eds/bin/gnu/H-x86_64-pc-linux-gnu/bin/../lib/gcc/nios2-elf/10.1.1/../../../../../H-x86_64-pc-linux-gnu/nios2-elf/lib/mhw-mulx/libc.a(lib_a-strcmp.o)
 .bss           0x000000000002c1cc        0x0 /opt/intelFPGA/20.1.1/nios2eds/bin/gnu/H-x86_64-pc-linux-gnu/bin/../lib/gcc/nios2-elf/10.1.1/../../../../../H-x86_64-pc-linux-gnu/nios2-elf/lib/mhw-mulx/libc.a(lib_a-vfiprintfr_1.o)
 .bss           0x000000000002c1cc        0x0 /opt/intelFPGA/20.1.1/nios2eds/bin/gnu/H-x86_64-pc-linux-gnu/bin/../lib/gcc/nios2-elf/10.1.1/../../../../../H-x86_64-pc-linux-gnu/nios2-elf/lib/mhw-mulx/libc.a(lib_a-wbuf.o)
 .bss           0x000000000002c1cc        0x0 /opt/intelFPGA/20.1.1/nios2eds/bin/gnu/H-x86_64-pc-linux-gnu/bin/../lib/gcc/nios2-elf/10.1.1/../../../../../H-x86_64-pc-linux-gnu/nios2-elf/lib/mhw-mulx/libc.a(lib_a-wcrtomb.o)
 .bss           0x000000000002c1cc        0x0 /opt/intelFPGA/20.1.1/nios2eds/bin/gnu/H-x86_64-pc-linux-gnu/bin/../lib/gcc/nios2-elf/10.1.1/../../../../../H-x86_64-pc-linux-gnu/nios2-elf/lib/mhw-mulx/libc.a(lib_a-wctomb_r.o)
 .bss           0x000000000002c1cc        0x0 /opt/intelFPGA/20.1.1/nios2eds/bin/gnu/H-x86_64-pc-linux-gnu/bin/../lib/gcc/nios2-elf/10.1.1/../../../../../H-x86_64-pc-linux-gnu/nios2-elf/lib/mhw-mulx/libc.a(lib_a-abort.o)
 .bss           0x000000000002c1cc        0x0 /opt/intelFPGA/20.1.1/nios2eds/bin/gnu/H-x86_64-pc-linux-gnu/bin/../lib/gcc/nios2-elf/10.1.1/../../../../../H-x86_64-pc-linux-gnu/nios2-elf/lib/mhw-mulx/libc.a(lib_a-ctype_.o)
 .bss           0x000000000002c1cc        0x0 /opt/intelFPGA/20.1.1/nios2eds/bin/gnu/H-x86_64-pc-linux-gnu/bin/../lib/gcc/nios2-elf/10.1.1/../../../../../H-x86_64-pc-linux-gnu/nios2-elf/lib/mhw-mulx/libc.a(lib_a-signal.o)
 .bss           0x000000000002c1cc        0x0 /opt/intelFPGA/20.1.1/nios2eds/bin/gnu/H-x86_64-pc-linux-gnu/bin/../lib/gcc/nios2-elf/10.1.1/../../../../../H-x86_64-pc-linux-gnu/nios2-elf/lib/mhw-mulx/libc.a(lib_a-signalr.o)
 .bss           0x000000000002c1cc        0x0 /opt/intelFPGA/20.1.1/nios2eds/bin/gnu/H-x86_64-pc-linux-gnu/bin/../lib/gcc/nios2-elf/10.1.1/mhw-mulx/libgcc.a(_udivdi3.o)
 .bss           0x000000000002c1cc        0x0 /opt/intelFPGA/20.1.1/nios2eds/bin/gnu/H-x86_64-pc-linux-gnu/bin/../lib/gcc/nios2-elf/10.1.1/mhw-mulx/libgcc.a(_umoddi3.o)
 .bss           0x000000000002c1cc        0x0 /opt/intelFPGA/20.1.1/nios2eds/bin/gnu/H-x86_64-pc-linux-gnu/bin/../lib/gcc/nios2-elf/10.1.1/mhw-mulx/libgcc.a(lib2-divmod.o)
 .bss           0x000000000002c1cc        0x0 /opt/intelFPGA/20.1.1/nios2eds/bin/gnu/H-x86_64-pc-linux-gnu/bin/../lib/gcc/nios2-elf/10.1.1/mhw-mulx/libgcc.a(adddf3.o)
 .bss           0x000000000002c1cc        0x0 /opt/intelFPGA/20.1.1/nios2eds/bin/gnu/H-x86_64-pc-linux-gnu/bin/../lib/gcc/nios2-elf/10.1.1/mhw-mulx/libgcc.a(divdf3.o)
 .bss           0x000000000002c1cc        0x0 /opt/intelFPGA/20.1.1/nios2eds/bin/gnu/H-x86_64-pc-linux-gnu/bin/../lib/gcc/nios2-elf/10.1.1/mhw-mulx/libgcc.a(eqdf2.o)
 .bss           0x000000000002c1cc        0x0 /opt/intelFPGA/20.1.1/nios2eds/bin/gnu/H-x86_64-pc-linux-gnu/bin/../lib/gcc/nios2-elf/10.1.1/mhw-mulx/libgcc.a(gedf2.o)
 .bss           0x000000000002c1cc        0x0 /opt/intelFPGA/20.1.1/nios2eds/bin/gnu/H-x86_64-pc-linux-gnu/bin/../lib/gcc/nios2-elf/10.1.1/mhw-mulx/libgcc.a(ledf2.o)
 .bss           0x000000000002c1cc        0x0 /opt/intelFPGA/20.1.1/nios2eds/bin/gnu/H-x86_64-pc-linux-gnu/bin/../lib/gcc/nios2-elf/10.1.1/mhw-mulx/libgcc.a(muldf3.o)
 .bss           0x000000000002c1cc        0x0 /opt/intelFPGA/20.1.1/nios2eds/bin/gnu/H-x86_64-pc-linux-gnu/bin/../lib/gcc/nios2-elf/10.1.1/mhw-mulx/libgcc.a(subdf3.o)
 .bss           0x000000000002c1cc        0x0 /opt/intelFPGA/20.1.1/nios2eds/bin/gnu/H-x86_64-pc-linux-gnu/bin/../lib/gcc/nios2-elf/10.1.1/mhw-mulx/libgcc.a(unorddf2.o)
 .bss           0x000000000002c1cc        0x0 /opt/intelFPGA/20.1.1/nios2eds/bin/gnu/H-x86_64-pc-linux-gnu/bin/../lib/gcc/nios2-elf/10.1.1/mhw-mulx/libgcc.a(fixdfsi.o)
 .bss           0x000000000002c1cc        0x0 /opt/intelFPGA/20.1.1/nios2eds/bin/gnu/H-x86_64-pc-linux-gnu/bin/../lib/gcc/nios2-elf/10.1.1/mhw-mulx/libgcc.a(floatsidf.o)
 .bss           0x000000000002c1cc        0x0 /opt/intelFPGA/20.1.1/nios2eds/bin/gnu/H-x86_64-pc-linux-gnu/bin/../lib/gcc/nios2-elf/10.1.1/mhw-mulx/libgcc.a(floatunsidf.o)
 .bss           0x000000000002c1cc        0x0 /opt/intelFPGA/20.1.1/nios2eds/bin/gnu/H-x86_64-pc-linux-gnu/bin/../lib/gcc/nios2-elf/10.1.1/mhw-mulx/libgcc.a(_clz.o)
 .bss           0x000000000002c1cc        0x0 /opt/intelFPGA/20.1.1/nios2eds/bin/gnu/H-x86_64-pc-linux-gnu/bin/../lib/gcc/nios2-elf/10.1.1/mhw-mulx/libgcc.a(_clzsi2.o)
 .bss           0x000000000002c1cc        0x0 ../ucosii_binary_game_hal_part1_bsp//libucosii_bsp.a(alt_close.o)
 .bss           0x000000000002c1cc        0x0 ../ucosii_binary_game_hal_part1_bsp//libucosii_bsp.a(alt_dev.o)
 .bss           0x000000000002c1cc        0x0 ../ucosii_binary_game_hal_part1_bsp//libucosii_bsp.a(alt_errno.o)
 .bss           0x000000000002c1cc        0x0 ../ucosii_binary_game_hal_part1_bsp//libucosii_bsp.a(alt_exit.o)
 .bss           0x000000000002c1cc        0x0 ../ucosii_binary_game_hal_part1_bsp//libucosii_bsp.a(alt_fstat.o)
 .bss           0x000000000002c1cc        0x0 ../ucosii_binary_game_hal_part1_bsp//libucosii_bsp.a(alt_getpid.o)
 .bss           0x000000000002c1cc        0xc ../ucosii_binary_game_hal_part1_bsp//libucosii_bsp.a(alt_gettod.o)
                0x000000000002c1cc                alt_resettime
 .bss           0x000000000002c1d8        0x0 ../ucosii_binary_game_hal_part1_bsp//libucosii_bsp.a(alt_isatty.o)
 .bss           0x000000000002c1d8        0x0 ../ucosii_binary_game_hal_part1_bsp//libucosii_bsp.a(alt_kill.o)
 .bss           0x000000000002c1d8        0x0 ../ucosii_binary_game_hal_part1_bsp//libucosii_bsp.a(alt_load.o)
 .bss           0x000000000002c1d8        0x0 ../ucosii_binary_game_hal_part1_bsp//libucosii_bsp.a(alt_lseek.o)
 .bss           0x000000000002c1d8        0x0 ../ucosii_binary_game_hal_part1_bsp//libucosii_bsp.a(alt_main.o)
 .bss           0x000000000002c1d8        0x0 ../ucosii_binary_game_hal_part1_bsp//libucosii_bsp.a(alt_read.o)
 .bss           0x000000000002c1d8        0x0 ../ucosii_binary_game_hal_part1_bsp//libucosii_bsp.a(alt_release_fd.o)
 .bss           0x000000000002c1d8        0x0 ../ucosii_binary_game_hal_part1_bsp//libucosii_bsp.a(alt_sbrk.o)
 .bss           0x000000000002c1d8        0x0 ../ucosii_binary_game_hal_part1_bsp//libucosii_bsp.a(alt_tick.o)
 .bss           0x000000000002c1d8        0x0 ../ucosii_binary_game_hal_part1_bsp//libucosii_bsp.a(alt_write.o)
 .bss           0x000000000002c1d8        0x0 ../ucosii_binary_game_hal_part1_bsp//libucosii_bsp.a(alt_env_lock.o)
 .bss           0x000000000002c1d8        0x0 ../ucosii_binary_game_hal_part1_bsp//libucosii_bsp.a(alt_malloc_lock.o)
 .bss           0x000000000002c1d8     0x3224 ../ucosii_binary_game_hal_part1_bsp//libucosii_bsp.a(os_core.o)
                0x000000000002c1d8                OSEventTbl
                0x000000000002cd18                OSFlagTbl
                0x000000000002d088                OSTaskStatStk
                0x000000000002d888                OSTaskIdleStk
                0x000000000002e088                OSTCBPrioTbl
                0x000000000002e0dc                OSTCBTbl
                0x000000000002e5ec                OSMemTbl
                0x000000000002f21c                OSQTbl
 .bss           0x000000000002f3fc        0x0 ../ucosii_binary_game_hal_part1_bsp//libucosii_bsp.a(os_dbg.o)
 .bss           0x000000000002f3fc        0x0 ../ucosii_binary_game_hal_part1_bsp//libucosii_bsp.a(os_flag.o)
 .bss           0x000000000002f3fc        0x0 ../ucosii_binary_game_hal_part1_bsp//libucosii_bsp.a(os_mem.o)
 .bss           0x000000000002f3fc        0x0 ../ucosii_binary_game_hal_part1_bsp//libucosii_bsp.a(os_mutex.o)
 .bss           0x000000000002f3fc        0x0 ../ucosii_binary_game_hal_part1_bsp//libucosii_bsp.a(os_q.o)
 .bss           0x000000000002f3fc        0x0 ../ucosii_binary_game_hal_part1_bsp//libucosii_bsp.a(os_sem.o)
 .bss           0x000000000002f3fc        0x0 ../ucosii_binary_game_hal_part1_bsp//libucosii_bsp.a(os_task.o)
 .bss           0x000000000002f3fc        0x0 ../ucosii_binary_game_hal_part1_bsp//libucosii_bsp.a(os_time.o)
 .bss           0x000000000002f3fc        0x0 ../ucosii_binary_game_hal_part1_bsp//libucosii_bsp.a(alt_sys_init.o)
 .bss           0x000000000002f3fc        0x0 ../ucosii_binary_game_hal_part1_bsp//libucosii_bsp.a(altera_avalon_jtag_uart_fd.o)
 .bss           0x000000000002f3fc        0x0 ../ucosii_binary_game_hal_part1_bsp//libucosii_bsp.a(altera_avalon_jtag_uart_init.o)
 .bss           0x000000000002f3fc        0x0 ../ucosii_binary_game_hal_part1_bsp//libucosii_bsp.a(altera_avalon_jtag_uart_ioctl.o)
 .bss           0x000000000002f3fc        0x0 ../ucosii_binary_game_hal_part1_bsp//libucosii_bsp.a(altera_avalon_jtag_uart_read.o)
 .bss           0x000000000002f3fc        0x0 ../ucosii_binary_game_hal_part1_bsp//libucosii_bsp.a(altera_avalon_jtag_uart_write.o)
 .bss           0x000000000002f3fc        0x0 ../ucosii_binary_game_hal_part1_bsp//libucosii_bsp.a(altera_avalon_timer_sc.o)
 .bss           0x000000000002f3fc        0x0 ../ucosii_binary_game_hal_part1_bsp//libucosii_bsp.a(altera_up_avalon_character_lcd.o)
 .bss           0x000000000002f3fc        0x0 ../ucosii_binary_game_hal_part1_bsp//libucosii_bsp.a(altera_up_avalon_irda.o)
 .bss           0x000000000002f3fc        0x0 ../ucosii_binary_game_hal_part1_bsp//libucosii_bsp.a(altera_up_avalon_ps2.o)
 .bss           0x000000000002f3fc        0x0 ../ucosii_binary_game_hal_part1_bsp//libucosii_bsp.a(altera_up_avalon_rs232.o)
 .bss           0x000000000002f3fc        0x0 ../ucosii_binary_game_hal_part1_bsp//libucosii_bsp.a(alt_alarm_start.o)
 .bss           0x000000000002f3fc        0x0 ../ucosii_binary_game_hal_part1_bsp//libucosii_bsp.a(alt_dcache_flush_all.o)
 .bss           0x000000000002f3fc        0x0 ../ucosii_binary_game_hal_part1_bsp//libucosii_bsp.a(alt_dev_llist_insert.o)
 .bss           0x000000000002f3fc        0x0 ../ucosii_binary_game_hal_part1_bsp//libucosii_bsp.a(alt_do_ctors.o)
 .bss           0x000000000002f3fc        0x0 ../ucosii_binary_game_hal_part1_bsp//libucosii_bsp.a(alt_do_dtors.o)
 .bss           0x000000000002f3fc        0x0 ../ucosii_binary_game_hal_part1_bsp//libucosii_bsp.a(alt_find_dev.o)
 .bss           0x000000000002f3fc        0x0 ../ucosii_binary_game_hal_part1_bsp//libucosii_bsp.a(alt_icache_flush_all.o)
 .bss           0x000000000002f3fc        0x0 ../ucosii_binary_game_hal_part1_bsp//libucosii_bsp.a(alt_io_redirect.o)
 .bss           0x000000000002f3fc        0x0 ../ucosii_binary_game_hal_part1_bsp//libucosii_bsp.a(alt_irq_register.o)
 .bss           0x000000000002f3fc        0x0 ../ucosii_binary_game_hal_part1_bsp//libucosii_bsp.a(alt_irq_vars.o)
 .bss           0x000000000002f3fc        0x0 ../ucosii_binary_game_hal_part1_bsp//libucosii_bsp.a(alt_open.o)
 .bss           0x000000000002f3fc        0x0 ../ucosii_binary_game_hal_part1_bsp//libucosii_bsp.a(altera_nios2_gen2_irq.o)
 .bss           0x000000000002f3fc        0x0 ../ucosii_binary_game_hal_part1_bsp//libucosii_bsp.a(os_cpu_a.o)
 .bss           0x000000000002f3fc        0x0 ../ucosii_binary_game_hal_part1_bsp//libucosii_bsp.a(os_cpu_c.o)
 .bss           0x000000000002f3fc        0x0 ../ucosii_binary_game_hal_part1_bsp//libucosii_bsp.a(alt_find_file.o)
 .bss           0x000000000002f3fc        0x0 ../ucosii_binary_game_hal_part1_bsp//libucosii_bsp.a(alt_get_fd.o)
 .bss           0x000000000002f3fc        0x0 ../ucosii_binary_game_hal_part1_bsp//libucosii_bsp.a(alt_icache_flush.o)
 .bss           0x000000000002f3fc        0x0 ../ucosii_binary_game_hal_part1_bsp//libucosii_bsp.a(alt_irq_entry.o)
 .bss           0x000000000002f3fc      0x100 ../ucosii_binary_game_hal_part1_bsp//libucosii_bsp.a(alt_irq_handler.o)
                0x000000000002f3fc                alt_irq
 .bss           0x000000000002f4fc        0x0 ../ucosii_binary_game_hal_part1_bsp//libucosii_bsp.a(alt_exception_entry.o)
 .bss           0x000000000002f4fc        0x0 ../ucosii_binary_game_hal_part1_bsp//libucosii_bsp.a(alt_instruction_exception_entry.o)
 .bss           0x000000000002f4fc        0x0 /opt/intelFPGA/20.1.1/nios2eds/bin/gnu/H-x86_64-pc-linux-gnu/bin/../lib/gcc/nios2-elf/10.1.1/../../../../../H-x86_64-pc-linux-gnu/nios2-elf/lib/mhw-mulx/libc.a(lib_a-atexit.o)
 .bss           0x000000000002f4fc        0x0 /opt/intelFPGA/20.1.1/nios2eds/bin/gnu/H-x86_64-pc-linux-gnu/bin/../lib/gcc/nios2-elf/10.1.1/../../../../../H-x86_64-pc-linux-gnu/nios2-elf/lib/mhw-mulx/libc.a(lib_a-exit.o)
 .bss           0x000000000002f4fc        0x0 /opt/intelFPGA/20.1.1/nios2eds/bin/gnu/H-x86_64-pc-linux-gnu/bin/../lib/gcc/nios2-elf/10.1.1/../../../../../H-x86_64-pc-linux-gnu/nios2-elf/lib/mhw-mulx/libc.a(lib_a-memcmp.o)
 .bss           0x000000000002f4fc        0x0 /opt/intelFPGA/20.1.1/nios2eds/bin/gnu/H-x86_64-pc-linux-gnu/bin/../lib/gcc/nios2-elf/10.1.1/../../../../../H-x86_64-pc-linux-gnu/nios2-elf/lib/mhw-mulx/libc.a(lib_a-__atexit.o)
 .bss           0x000000000002f4fc        0x0 /opt/intelFPGA/20.1.1/nios2eds/bin/gnu/H-x86_64-pc-linux-gnu/bin/../lib/gcc/nios2-elf/10.1.1/../../../../../H-x86_64-pc-linux-gnu/nios2-elf/lib/mhw-mulx/libc.a(lib_a-__call_atexit.o)
 *(COMMON)
                0x000000000002f4fc                . = ALIGN (0x4)
                0x000000000002f4fc                __bss_end = ABSOLUTE (.)

.SDRAM          0x000000000002f4fc        0x0
                [!provide]                        PROVIDE (_alt_partition_SDRAM_start = ABSOLUTE (.))
 *(.SDRAM .SDRAM. SDRAM.*)
                0x000000000002f4fc                . = ALIGN (0x4)
                [!provide]                        PROVIDE (_alt_partition_SDRAM_end = ABSOLUTE (.))
                0x000000000002f4fc                _end = ABSOLUTE (.)
                0x000000000002f4fc                end = ABSOLUTE (.)
                0x000000000002f4fc                __alt_stack_base = ABSOLUTE (.)
                [!provide]                        PROVIDE (_alt_partition_SDRAM_load_addr = LOADADDR (.SDRAM))

.VGA_Subsystem_Char_Buf_Subsystem_Onchip_SRAM
                0x0000000009000000        0x0 load address 0x000000000002f4fc
                [!provide]                        PROVIDE (_alt_partition_VGA_Subsystem_Char_Buf_Subsystem_Onchip_SRAM_start = ABSOLUTE (.))
 *(.VGA_Subsystem_Char_Buf_Subsystem_Onchip_SRAM .VGA_Subsystem_Char_Buf_Subsystem_Onchip_SRAM. VGA_Subsystem_Char_Buf_Subsystem_Onchip_SRAM.*)
                0x0000000009000000                . = ALIGN (0x4)
                [!provide]                        PROVIDE (_alt_partition_VGA_Subsystem_Char_Buf_Subsystem_Onchip_SRAM_end = ABSOLUTE (.))
                [!provide]                        PROVIDE (_alt_partition_VGA_Subsystem_Char_Buf_Subsystem_Onchip_SRAM_load_addr = LOADADDR (.VGA_Subsystem_Char_Buf_Subsystem_Onchip_SRAM))

.stab
 *(.stab)

.stabstr
 *(.stabstr)

.stab.excl
 *(.stab.excl)

.stab.exclstr
 *(.stab.exclstr)

.stab.index
 *(.stab.index)

.stab.indexstr
 *(.stab.indexstr)

.comment        0x0000000000000000       0x2d
 *(.comment)
 .comment       0x0000000000000000       0x2d obj/default/hello_ucosii.o
                                         0x2e (size before relaxing)
 .comment       0x000000000000002d       0x2e /opt/intelFPGA/20.1.1/nios2eds/bin/gnu/H-x86_64-pc-linux-gnu/bin/../lib/gcc/nios2-elf/10.1.1/../../../../../H-x86_64-pc-linux-gnu/nios2-elf/lib/mhw-mulx/libc.a(lib_a-memcpy.o)
 .comment       0x000000000000002d       0x2e /opt/intelFPGA/20.1.1/nios2eds/bin/gnu/H-x86_64-pc-linux-gnu/bin/../lib/gcc/nios2-elf/10.1.1/../../../../../H-x86_64-pc-linux-gnu/nios2-elf/lib/mhw-mulx/libc.a(lib_a-printf.o)
 .comment       0x000000000000002d       0x2e /opt/intelFPGA/20.1.1/nios2eds/bin/gnu/H-x86_64-pc-linux-gnu/bin/../lib/gcc/nios2-elf/10.1.1/../../../../../H-x86_64-pc-linux-gnu/nios2-elf/lib/mhw-mulx/libc.a(lib_a-rand.o)
 .comment       0x000000000000002d       0x2e /opt/intelFPGA/20.1.1/nios2eds/bin/gnu/H-x86_64-pc-linux-gnu/bin/../lib/gcc/nios2-elf/10.1.1/../../../../../H-x86_64-pc-linux-gnu/nios2-elf/lib/mhw-mulx/libc.a(lib_a-time.o)
 .comment       0x000000000000002d       0x2e /opt/intelFPGA/20.1.1/nios2eds/bin/gnu/H-x86_64-pc-linux-gnu/bin/../lib/gcc/nios2-elf/10.1.1/../../../../../H-x86_64-pc-linux-gnu/nios2-elf/lib/mhw-mulx/libc.a(lib_a-vfprintf.o)
 .comment       0x000000000000002d       0x2e /opt/intelFPGA/20.1.1/nios2eds/bin/gnu/H-x86_64-pc-linux-gnu/bin/../lib/gcc/nios2-elf/10.1.1/../../../../../H-x86_64-pc-linux-gnu/nios2-elf/lib/mhw-mulx/libc.a(lib_a-wsetup.o)
 .comment       0x000000000000002d       0x2e /opt/intelFPGA/20.1.1/nios2eds/bin/gnu/H-x86_64-pc-linux-gnu/bin/../lib/gcc/nios2-elf/10.1.1/../../../../../H-x86_64-pc-linux-gnu/nios2-elf/lib/mhw-mulx/libc.a(lib_a-dtoa.o)
 .comment       0x000000000000002d       0x2e /opt/intelFPGA/20.1.1/nios2eds/bin/gnu/H-x86_64-pc-linux-gnu/bin/../lib/gcc/nios2-elf/10.1.1/../../../../../H-x86_64-pc-linux-gnu/nios2-elf/lib/mhw-mulx/libc.a(lib_a-fflush.o)
 .comment       0x000000000000002d       0x2e /opt/intelFPGA/20.1.1/nios2eds/bin/gnu/H-x86_64-pc-linux-gnu/bin/../lib/gcc/nios2-elf/10.1.1/../../../../../H-x86_64-pc-linux-gnu/nios2-elf/lib/mhw-mulx/libc.a(lib_a-findfp.o)
 .comment       0x000000000000002d       0x2e /opt/intelFPGA/20.1.1/nios2eds/bin/gnu/H-x86_64-pc-linux-gnu/bin/../lib/gcc/nios2-elf/10.1.1/../../../../../H-x86_64-pc-linux-gnu/nios2-elf/lib/mhw-mulx/libc.a(lib_a-freer.o)
 .comment       0x000000000000002d       0x2e /opt/intelFPGA/20.1.1/nios2eds/bin/gnu/H-x86_64-pc-linux-gnu/bin/../lib/gcc/nios2-elf/10.1.1/../../../../../H-x86_64-pc-linux-gnu/nios2-elf/lib/mhw-mulx/libc.a(lib_a-fwalk.o)
 .comment       0x000000000000002d       0x2e /opt/intelFPGA/20.1.1/nios2eds/bin/gnu/H-x86_64-pc-linux-gnu/bin/../lib/gcc/nios2-elf/10.1.1/../../../../../H-x86_64-pc-linux-gnu/nios2-elf/lib/mhw-mulx/libc.a(lib_a-gettimeofdayr.o)
 .comment       0x000000000000002d       0x2e /opt/intelFPGA/20.1.1/nios2eds/bin/gnu/H-x86_64-pc-linux-gnu/bin/../lib/gcc/nios2-elf/10.1.1/../../../../../H-x86_64-pc-linux-gnu/nios2-elf/lib/mhw-mulx/libc.a(lib_a-impure.o)
 .comment       0x000000000000002d       0x2e /opt/intelFPGA/20.1.1/nios2eds/bin/gnu/H-x86_64-pc-linux-gnu/bin/../lib/gcc/nios2-elf/10.1.1/../../../../../H-x86_64-pc-linux-gnu/nios2-elf/lib/mhw-mulx/libc.a(lib_a-int_errno.o)
 .comment       0x000000000000002d       0x2e /opt/intelFPGA/20.1.1/nios2eds/bin/gnu/H-x86_64-pc-linux-gnu/bin/../lib/gcc/nios2-elf/10.1.1/../../../../../H-x86_64-pc-linux-gnu/nios2-elf/lib/mhw-mulx/libc.a(lib_a-localeconv.o)
 .comment       0x000000000000002d       0x2e /opt/intelFPGA/20.1.1/nios2eds/bin/gnu/H-x86_64-pc-linux-gnu/bin/../lib/gcc/nios2-elf/10.1.1/../../../../../H-x86_64-pc-linux-gnu/nios2-elf/lib/mhw-mulx/libc.a(lib_a-makebuf.o)
 .comment       0x000000000000002d       0x2e /opt/intelFPGA/20.1.1/nios2eds/bin/gnu/H-x86_64-pc-linux-gnu/bin/../lib/gcc/nios2-elf/10.1.1/../../../../../H-x86_64-pc-linux-gnu/nios2-elf/lib/mhw-mulx/libc.a(lib_a-mallocr.o)
 .comment       0x000000000000002d       0x2e /opt/intelFPGA/20.1.1/nios2eds/bin/gnu/H-x86_64-pc-linux-gnu/bin/../lib/gcc/nios2-elf/10.1.1/../../../../../H-x86_64-pc-linux-gnu/nios2-elf/lib/mhw-mulx/libc.a(lib_a-memchr.o)
 .comment       0x000000000000002d       0x2e /opt/intelFPGA/20.1.1/nios2eds/bin/gnu/H-x86_64-pc-linux-gnu/bin/../lib/gcc/nios2-elf/10.1.1/../../../../../H-x86_64-pc-linux-gnu/nios2-elf/lib/mhw-mulx/libc.a(lib_a-memset.o)
 .comment       0x000000000000002d       0x2e /opt/intelFPGA/20.1.1/nios2eds/bin/gnu/H-x86_64-pc-linux-gnu/bin/../lib/gcc/nios2-elf/10.1.1/../../../../../H-x86_64-pc-linux-gnu/nios2-elf/lib/mhw-mulx/libc.a(lib_a-mprec.o)
 .comment       0x000000000000002d       0x2e /opt/intelFPGA/20.1.1/nios2eds/bin/gnu/H-x86_64-pc-linux-gnu/bin/../lib/gcc/nios2-elf/10.1.1/../../../../../H-x86_64-pc-linux-gnu/nios2-elf/lib/mhw-mulx/libc.a(lib_a-sbrkr.o)
 .comment       0x000000000000002d       0x2e /opt/intelFPGA/20.1.1/nios2eds/bin/gnu/H-x86_64-pc-linux-gnu/bin/../lib/gcc/nios2-elf/10.1.1/../../../../../H-x86_64-pc-linux-gnu/nios2-elf/lib/mhw-mulx/libc.a(lib_a-stdio.o)
 .comment       0x000000000000002d       0x2e /opt/intelFPGA/20.1.1/nios2eds/bin/gnu/H-x86_64-pc-linux-gnu/bin/../lib/gcc/nios2-elf/10.1.1/../../../../../H-x86_64-pc-linux-gnu/nios2-elf/lib/mhw-mulx/libc.a(lib_a-strlen.o)
 .comment       0x000000000000002d       0x2e /opt/intelFPGA/20.1.1/nios2eds/bin/gnu/H-x86_64-pc-linux-gnu/bin/../lib/gcc/nios2-elf/10.1.1/../../../../../H-x86_64-pc-linux-gnu/nios2-elf/lib/mhw-mulx/libc.a(lib_a-vfiprintf.o)
 .comment       0x000000000000002d       0x2e /opt/intelFPGA/20.1.1/nios2eds/bin/gnu/H-x86_64-pc-linux-gnu/bin/../lib/gcc/nios2-elf/10.1.1/../../../../../H-x86_64-pc-linux-gnu/nios2-elf/lib/mhw-mulx/libc.a(lib_a-writer.o)
 .comment       0x000000000000002d       0x2e /opt/intelFPGA/20.1.1/nios2eds/bin/gnu/H-x86_64-pc-linux-gnu/bin/../lib/gcc/nios2-elf/10.1.1/../../../../../H-x86_64-pc-linux-gnu/nios2-elf/lib/mhw-mulx/libc.a(closer.o)
 .comment       0x000000000000002d       0x2e /opt/intelFPGA/20.1.1/nios2eds/bin/gnu/H-x86_64-pc-linux-gnu/bin/../lib/gcc/nios2-elf/10.1.1/../../../../../H-x86_64-pc-linux-gnu/nios2-elf/lib/mhw-mulx/libc.a(lib_a-assert.o)
 .comment       0x000000000000002d       0x2e /opt/intelFPGA/20.1.1/nios2eds/bin/gnu/H-x86_64-pc-linux-gnu/bin/../lib/gcc/nios2-elf/10.1.1/../../../../../H-x86_64-pc-linux-gnu/nios2-elf/lib/mhw-mulx/libc.a(lib_a-callocr.o)
 .comment       0x000000000000002d       0x2e /opt/intelFPGA/20.1.1/nios2eds/bin/gnu/H-x86_64-pc-linux-gnu/bin/../lib/gcc/nios2-elf/10.1.1/../../../../../H-x86_64-pc-linux-gnu/nios2-elf/lib/mhw-mulx/libc.a(lib_a-fclose.o)
 .comment       0x000000000000002d       0x2e /opt/intelFPGA/20.1.1/nios2eds/bin/gnu/H-x86_64-pc-linux-gnu/bin/../lib/gcc/nios2-elf/10.1.1/../../../../../H-x86_64-pc-linux-gnu/nios2-elf/lib/mhw-mulx/libc.a(lib_a-fiprintf.o)
 .comment       0x000000000000002d       0x2e /opt/intelFPGA/20.1.1/nios2eds/bin/gnu/H-x86_64-pc-linux-gnu/bin/../lib/gcc/nios2-elf/10.1.1/../../../../../H-x86_64-pc-linux-gnu/nios2-elf/lib/mhw-mulx/libc.a(lib_a-fputwc.o)
 .comment       0x000000000000002d       0x2e /opt/intelFPGA/20.1.1/nios2eds/bin/gnu/H-x86_64-pc-linux-gnu/bin/../lib/gcc/nios2-elf/10.1.1/../../../../../H-x86_64-pc-linux-gnu/nios2-elf/lib/mhw-mulx/libc.a(lib_a-fstatr.o)
 .comment       0x000000000000002d       0x2e /opt/intelFPGA/20.1.1/nios2eds/bin/gnu/H-x86_64-pc-linux-gnu/bin/../lib/gcc/nios2-elf/10.1.1/../../../../../H-x86_64-pc-linux-gnu/nios2-elf/lib/mhw-mulx/libc.a(lib_a-fvwrite.o)
 .comment       0x000000000000002d       0x2e /opt/intelFPGA/20.1.1/nios2eds/bin/gnu/H-x86_64-pc-linux-gnu/bin/../lib/gcc/nios2-elf/10.1.1/../../../../../H-x86_64-pc-linux-gnu/nios2-elf/lib/mhw-mulx/libc.a(lib_a-isattyr.o)
 .comment       0x000000000000002d       0x2e /opt/intelFPGA/20.1.1/nios2eds/bin/gnu/H-x86_64-pc-linux-gnu/bin/../lib/gcc/nios2-elf/10.1.1/../../../../../H-x86_64-pc-linux-gnu/nios2-elf/lib/mhw-mulx/libc.a(lib_a-locale.o)
 .comment       0x000000000000002d       0x2e /opt/intelFPGA/20.1.1/nios2eds/bin/gnu/H-x86_64-pc-linux-gnu/bin/../lib/gcc/nios2-elf/10.1.1/../../../../../H-x86_64-pc-linux-gnu/nios2-elf/lib/mhw-mulx/libc.a(lib_a-lseekr.o)
 .comment       0x000000000000002d       0x2e /opt/intelFPGA/20.1.1/nios2eds/bin/gnu/H-x86_64-pc-linux-gnu/bin/../lib/gcc/nios2-elf/10.1.1/../../../../../H-x86_64-pc-linux-gnu/nios2-elf/lib/mhw-mulx/libc.a(lib_a-mbtowc_r.o)
 .comment       0x000000000000002d       0x2e /opt/intelFPGA/20.1.1/nios2eds/bin/gnu/H-x86_64-pc-linux-gnu/bin/../lib/gcc/nios2-elf/10.1.1/../../../../../H-x86_64-pc-linux-gnu/nios2-elf/lib/mhw-mulx/libc.a(lib_a-memmove.o)
 .comment       0x000000000000002d       0x2e /opt/intelFPGA/20.1.1/nios2eds/bin/gnu/H-x86_64-pc-linux-gnu/bin/../lib/gcc/nios2-elf/10.1.1/../../../../../H-x86_64-pc-linux-gnu/nios2-elf/lib/mhw-mulx/libc.a(lib_a-readr.o)
 .comment       0x000000000000002d       0x2e /opt/intelFPGA/20.1.1/nios2eds/bin/gnu/H-x86_64-pc-linux-gnu/bin/../lib/gcc/nios2-elf/10.1.1/../../../../../H-x86_64-pc-linux-gnu/nios2-elf/lib/mhw-mulx/libc.a(lib_a-reallocr.o)
 .comment       0x000000000000002d       0x2e /opt/intelFPGA/20.1.1/nios2eds/bin/gnu/H-x86_64-pc-linux-gnu/bin/../lib/gcc/nios2-elf/10.1.1/../../../../../H-x86_64-pc-linux-gnu/nios2-elf/lib/mhw-mulx/libc.a(lib_a-strcmp.o)
 .comment       0x000000000000002d       0x2e /opt/intelFPGA/20.1.1/nios2eds/bin/gnu/H-x86_64-pc-linux-gnu/bin/../lib/gcc/nios2-elf/10.1.1/../../../../../H-x86_64-pc-linux-gnu/nios2-elf/lib/mhw-mulx/libc.a(lib_a-vfiprintfr_1.o)
 .comment       0x000000000000002d       0x2e /opt/intelFPGA/20.1.1/nios2eds/bin/gnu/H-x86_64-pc-linux-gnu/bin/../lib/gcc/nios2-elf/10.1.1/../../../../../H-x86_64-pc-linux-gnu/nios2-elf/lib/mhw-mulx/libc.a(lib_a-wbuf.o)
 .comment       0x000000000000002d       0x2e /opt/intelFPGA/20.1.1/nios2eds/bin/gnu/H-x86_64-pc-linux-gnu/bin/../lib/gcc/nios2-elf/10.1.1/../../../../../H-x86_64-pc-linux-gnu/nios2-elf/lib/mhw-mulx/libc.a(lib_a-wcrtomb.o)
 .comment       0x000000000000002d       0x2e /opt/intelFPGA/20.1.1/nios2eds/bin/gnu/H-x86_64-pc-linux-gnu/bin/../lib/gcc/nios2-elf/10.1.1/../../../../../H-x86_64-pc-linux-gnu/nios2-elf/lib/mhw-mulx/libc.a(lib_a-wctomb_r.o)
 .comment       0x000000000000002d       0x2e /opt/intelFPGA/20.1.1/nios2eds/bin/gnu/H-x86_64-pc-linux-gnu/bin/../lib/gcc/nios2-elf/10.1.1/../../../../../H-x86_64-pc-linux-gnu/nios2-elf/lib/mhw-mulx/libc.a(lib_a-abort.o)
 .comment       0x000000000000002d       0x2e /opt/intelFPGA/20.1.1/nios2eds/bin/gnu/H-x86_64-pc-linux-gnu/bin/../lib/gcc/nios2-elf/10.1.1/../../../../../H-x86_64-pc-linux-gnu/nios2-elf/lib/mhw-mulx/libc.a(lib_a-ctype_.o)
 .comment       0x000000000000002d       0x2e /opt/intelFPGA/20.1.1/nios2eds/bin/gnu/H-x86_64-pc-linux-gnu/bin/../lib/gcc/nios2-elf/10.1.1/../../../../../H-x86_64-pc-linux-gnu/nios2-elf/lib/mhw-mulx/libc.a(lib_a-signal.o)
 .comment       0x000000000000002d       0x2e /opt/intelFPGA/20.1.1/nios2eds/bin/gnu/H-x86_64-pc-linux-gnu/bin/../lib/gcc/nios2-elf/10.1.1/../../../../../H-x86_64-pc-linux-gnu/nios2-elf/lib/mhw-mulx/libc.a(lib_a-signalr.o)
 .comment       0x000000000000002d       0x2e /opt/intelFPGA/20.1.1/nios2eds/bin/gnu/H-x86_64-pc-linux-gnu/bin/../lib/gcc/nios2-elf/10.1.1/mhw-mulx/libgcc.a(_udivdi3.o)
 .comment       0x000000000000002d       0x2e /opt/intelFPGA/20.1.1/nios2eds/bin/gnu/H-x86_64-pc-linux-gnu/bin/../lib/gcc/nios2-elf/10.1.1/mhw-mulx/libgcc.a(_umoddi3.o)
 .comment       0x000000000000002d       0x2e /opt/intelFPGA/20.1.1/nios2eds/bin/gnu/H-x86_64-pc-linux-gnu/bin/../lib/gcc/nios2-elf/10.1.1/mhw-mulx/libgcc.a(lib2-divmod.o)
 .comment       0x000000000000002d       0x2e /opt/intelFPGA/20.1.1/nios2eds/bin/gnu/H-x86_64-pc-linux-gnu/bin/../lib/gcc/nios2-elf/10.1.1/mhw-mulx/libgcc.a(adddf3.o)
 .comment       0x000000000000002d       0x2e /opt/intelFPGA/20.1.1/nios2eds/bin/gnu/H-x86_64-pc-linux-gnu/bin/../lib/gcc/nios2-elf/10.1.1/mhw-mulx/libgcc.a(divdf3.o)
 .comment       0x000000000000002d       0x2e /opt/intelFPGA/20.1.1/nios2eds/bin/gnu/H-x86_64-pc-linux-gnu/bin/../lib/gcc/nios2-elf/10.1.1/mhw-mulx/libgcc.a(eqdf2.o)
 .comment       0x000000000000002d       0x2e /opt/intelFPGA/20.1.1/nios2eds/bin/gnu/H-x86_64-pc-linux-gnu/bin/../lib/gcc/nios2-elf/10.1.1/mhw-mulx/libgcc.a(gedf2.o)
 .comment       0x000000000000002d       0x2e /opt/intelFPGA/20.1.1/nios2eds/bin/gnu/H-x86_64-pc-linux-gnu/bin/../lib/gcc/nios2-elf/10.1.1/mhw-mulx/libgcc.a(ledf2.o)
 .comment       0x000000000000002d       0x2e /opt/intelFPGA/20.1.1/nios2eds/bin/gnu/H-x86_64-pc-linux-gnu/bin/../lib/gcc/nios2-elf/10.1.1/mhw-mulx/libgcc.a(muldf3.o)
 .comment       0x000000000000002d       0x2e /opt/intelFPGA/20.1.1/nios2eds/bin/gnu/H-x86_64-pc-linux-gnu/bin/../lib/gcc/nios2-elf/10.1.1/mhw-mulx/libgcc.a(subdf3.o)
 .comment       0x000000000000002d       0x2e /opt/intelFPGA/20.1.1/nios2eds/bin/gnu/H-x86_64-pc-linux-gnu/bin/../lib/gcc/nios2-elf/10.1.1/mhw-mulx/libgcc.a(unorddf2.o)
 .comment       0x000000000000002d       0x2e /opt/intelFPGA/20.1.1/nios2eds/bin/gnu/H-x86_64-pc-linux-gnu/bin/../lib/gcc/nios2-elf/10.1.1/mhw-mulx/libgcc.a(fixdfsi.o)
 .comment       0x000000000000002d       0x2e /opt/intelFPGA/20.1.1/nios2eds/bin/gnu/H-x86_64-pc-linux-gnu/bin/../lib/gcc/nios2-elf/10.1.1/mhw-mulx/libgcc.a(floatsidf.o)
 .comment       0x000000000000002d       0x2e /opt/intelFPGA/20.1.1/nios2eds/bin/gnu/H-x86_64-pc-linux-gnu/bin/../lib/gcc/nios2-elf/10.1.1/mhw-mulx/libgcc.a(floatunsidf.o)
 .comment       0x000000000000002d       0x2e /opt/intelFPGA/20.1.1/nios2eds/bin/gnu/H-x86_64-pc-linux-gnu/bin/../lib/gcc/nios2-elf/10.1.1/mhw-mulx/libgcc.a(_clz.o)
 .comment       0x000000000000002d       0x2e /opt/intelFPGA/20.1.1/nios2eds/bin/gnu/H-x86_64-pc-linux-gnu/bin/../lib/gcc/nios2-elf/10.1.1/mhw-mulx/libgcc.a(_clzsi2.o)
 .comment       0x000000000000002d       0x2e ../ucosii_binary_game_hal_part1_bsp//libucosii_bsp.a(alt_close.o)
 .comment       0x000000000000002d       0x2e ../ucosii_binary_game_hal_part1_bsp//libucosii_bsp.a(alt_dev.o)
 .comment       0x000000000000002d       0x2e ../ucosii_binary_game_hal_part1_bsp//libucosii_bsp.a(alt_errno.o)
 .comment       0x000000000000002d       0x2e ../ucosii_binary_game_hal_part1_bsp//libucosii_bsp.a(alt_exit.o)
 .comment       0x000000000000002d       0x2e ../ucosii_binary_game_hal_part1_bsp//libucosii_bsp.a(alt_fstat.o)
 .comment       0x000000000000002d       0x2e ../ucosii_binary_game_hal_part1_bsp//libucosii_bsp.a(alt_getpid.o)
 .comment       0x000000000000002d       0x2e ../ucosii_binary_game_hal_part1_bsp//libucosii_bsp.a(alt_gettod.o)
 .comment       0x000000000000002d       0x2e ../ucosii_binary_game_hal_part1_bsp//libucosii_bsp.a(alt_isatty.o)
 .comment       0x000000000000002d       0x2e ../ucosii_binary_game_hal_part1_bsp//libucosii_bsp.a(alt_kill.o)
 .comment       0x000000000000002d       0x2e ../ucosii_binary_game_hal_part1_bsp//libucosii_bsp.a(alt_load.o)
 .comment       0x000000000000002d       0x2e ../ucosii_binary_game_hal_part1_bsp//libucosii_bsp.a(alt_lseek.o)
 .comment       0x000000000000002d       0x2e ../ucosii_binary_game_hal_part1_bsp//libucosii_bsp.a(alt_main.o)
 .comment       0x000000000000002d       0x2e ../ucosii_binary_game_hal_part1_bsp//libucosii_bsp.a(alt_read.o)
 .comment       0x000000000000002d       0x2e ../ucosii_binary_game_hal_part1_bsp//libucosii_bsp.a(alt_release_fd.o)
 .comment       0x000000000000002d       0x2e ../ucosii_binary_game_hal_part1_bsp//libucosii_bsp.a(alt_sbrk.o)
 .comment       0x000000000000002d       0x2e ../ucosii_binary_game_hal_part1_bsp//libucosii_bsp.a(alt_tick.o)
 .comment       0x000000000000002d       0x2e ../ucosii_binary_game_hal_part1_bsp//libucosii_bsp.a(alt_write.o)
 .comment       0x000000000000002d       0x2e ../ucosii_binary_game_hal_part1_bsp//libucosii_bsp.a(alt_env_lock.o)
 .comment       0x000000000000002d       0x2e ../ucosii_binary_game_hal_part1_bsp//libucosii_bsp.a(alt_malloc_lock.o)
 .comment       0x000000000000002d       0x2e ../ucosii_binary_game_hal_part1_bsp//libucosii_bsp.a(os_core.o)
 .comment       0x000000000000002d       0x2e ../ucosii_binary_game_hal_part1_bsp//libucosii_bsp.a(os_dbg.o)
 .comment       0x000000000000002d       0x2e ../ucosii_binary_game_hal_part1_bsp//libucosii_bsp.a(os_flag.o)
 .comment       0x000000000000002d       0x2e ../ucosii_binary_game_hal_part1_bsp//libucosii_bsp.a(os_mem.o)
 .comment       0x000000000000002d       0x2e ../ucosii_binary_game_hal_part1_bsp//libucosii_bsp.a(os_mutex.o)
 .comment       0x000000000000002d       0x2e ../ucosii_binary_game_hal_part1_bsp//libucosii_bsp.a(os_q.o)
 .comment       0x000000000000002d       0x2e ../ucosii_binary_game_hal_part1_bsp//libucosii_bsp.a(os_sem.o)
 .comment       0x000000000000002d       0x2e ../ucosii_binary_game_hal_part1_bsp//libucosii_bsp.a(os_task.o)
 .comment       0x000000000000002d       0x2e ../ucosii_binary_game_hal_part1_bsp//libucosii_bsp.a(os_time.o)
 .comment       0x000000000000002d       0x2e ../ucosii_binary_game_hal_part1_bsp//libucosii_bsp.a(alt_sys_init.o)
 .comment       0x000000000000002d       0x2e ../ucosii_binary_game_hal_part1_bsp//libucosii_bsp.a(altera_avalon_jtag_uart_fd.o)
 .comment       0x000000000000002d       0x2e ../ucosii_binary_game_hal_part1_bsp//libucosii_bsp.a(altera_avalon_jtag_uart_init.o)
 .comment       0x000000000000002d       0x2e ../ucosii_binary_game_hal_part1_bsp//libucosii_bsp.a(altera_avalon_jtag_uart_ioctl.o)
 .comment       0x000000000000002d       0x2e ../ucosii_binary_game_hal_part1_bsp//libucosii_bsp.a(altera_avalon_jtag_uart_read.o)
 .comment       0x000000000000002d       0x2e ../ucosii_binary_game_hal_part1_bsp//libucosii_bsp.a(altera_avalon_jtag_uart_write.o)
 .comment       0x000000000000002d       0x2e ../ucosii_binary_game_hal_part1_bsp//libucosii_bsp.a(altera_avalon_timer_sc.o)
 .comment       0x000000000000002d       0x2e ../ucosii_binary_game_hal_part1_bsp//libucosii_bsp.a(altera_up_avalon_character_lcd.o)
 .comment       0x000000000000002d       0x2e ../ucosii_binary_game_hal_part1_bsp//libucosii_bsp.a(altera_up_avalon_irda.o)
 .comment       0x000000000000002d       0x2e ../ucosii_binary_game_hal_part1_bsp//libucosii_bsp.a(altera_up_avalon_ps2.o)
 .comment       0x000000000000002d       0x2e ../ucosii_binary_game_hal_part1_bsp//libucosii_bsp.a(altera_up_avalon_rs232.o)
 .comment       0x000000000000002d       0x2e ../ucosii_binary_game_hal_part1_bsp//libucosii_bsp.a(alt_alarm_start.o)
 .comment       0x000000000000002d       0x2e ../ucosii_binary_game_hal_part1_bsp//libucosii_bsp.a(alt_dcache_flush_all.o)
 .comment       0x000000000000002d       0x2e ../ucosii_binary_game_hal_part1_bsp//libucosii_bsp.a(alt_dev_llist_insert.o)
 .comment       0x000000000000002d       0x2e ../ucosii_binary_game_hal_part1_bsp//libucosii_bsp.a(alt_do_ctors.o)
 .comment       0x000000000000002d       0x2e ../ucosii_binary_game_hal_part1_bsp//libucosii_bsp.a(alt_do_dtors.o)
 .comment       0x000000000000002d       0x2e ../ucosii_binary_game_hal_part1_bsp//libucosii_bsp.a(alt_find_dev.o)
 .comment       0x000000000000002d       0x2e ../ucosii_binary_game_hal_part1_bsp//libucosii_bsp.a(alt_icache_flush_all.o)
 .comment       0x000000000000002d       0x2e ../ucosii_binary_game_hal_part1_bsp//libucosii_bsp.a(alt_io_redirect.o)
 .comment       0x000000000000002d       0x2e ../ucosii_binary_game_hal_part1_bsp//libucosii_bsp.a(alt_irq_register.o)
 .comment       0x000000000000002d       0x2e ../ucosii_binary_game_hal_part1_bsp//libucosii_bsp.a(alt_irq_vars.o)
 .comment       0x000000000000002d       0x2e ../ucosii_binary_game_hal_part1_bsp//libucosii_bsp.a(alt_open.o)
 .comment       0x000000000000002d       0x2e ../ucosii_binary_game_hal_part1_bsp//libucosii_bsp.a(altera_nios2_gen2_irq.o)
 .comment       0x000000000000002d       0x2e ../ucosii_binary_game_hal_part1_bsp//libucosii_bsp.a(os_cpu_c.o)
 .comment       0x000000000000002d       0x2e ../ucosii_binary_game_hal_part1_bsp//libucosii_bsp.a(alt_find_file.o)
 .comment       0x000000000000002d       0x2e ../ucosii_binary_game_hal_part1_bsp//libucosii_bsp.a(alt_get_fd.o)
 .comment       0x000000000000002d       0x2e ../ucosii_binary_game_hal_part1_bsp//libucosii_bsp.a(alt_icache_flush.o)
 .comment       0x000000000000002d       0x2e ../ucosii_binary_game_hal_part1_bsp//libucosii_bsp.a(alt_irq_handler.o)
 .comment       0x000000000000002d       0x2e ../ucosii_binary_game_hal_part1_bsp//libucosii_bsp.a(alt_instruction_exception_entry.o)
 .comment       0x000000000000002d       0x2e /opt/intelFPGA/20.1.1/nios2eds/bin/gnu/H-x86_64-pc-linux-gnu/bin/../lib/gcc/nios2-elf/10.1.1/../../../../../H-x86_64-pc-linux-gnu/nios2-elf/lib/mhw-mulx/libc.a(lib_a-atexit.o)
 .comment       0x000000000000002d       0x2e /opt/intelFPGA/20.1.1/nios2eds/bin/gnu/H-x86_64-pc-linux-gnu/bin/../lib/gcc/nios2-elf/10.1.1/../../../../../H-x86_64-pc-linux-gnu/nios2-elf/lib/mhw-mulx/libc.a(lib_a-exit.o)
 .comment       0x000000000000002d       0x2e /opt/intelFPGA/20.1.1/nios2eds/bin/gnu/H-x86_64-pc-linux-gnu/bin/../lib/gcc/nios2-elf/10.1.1/../../../../../H-x86_64-pc-linux-gnu/nios2-elf/lib/mhw-mulx/libc.a(lib_a-memcmp.o)
 .comment       0x000000000000002d       0x2e /opt/intelFPGA/20.1.1/nios2eds/bin/gnu/H-x86_64-pc-linux-gnu/bin/../lib/gcc/nios2-elf/10.1.1/../../../../../H-x86_64-pc-linux-gnu/nios2-elf/lib/mhw-mulx/libc.a(lib_a-__atexit.o)
 .comment       0x000000000000002d       0x2e /opt/intelFPGA/20.1.1/nios2eds/bin/gnu/H-x86_64-pc-linux-gnu/bin/../lib/gcc/nios2-elf/10.1.1/../../../../../H-x86_64-pc-linux-gnu/nios2-elf/lib/mhw-mulx/libc.a(lib_a-__call_atexit.o)

.debug
 *(.debug)

.line
 *(.line)

.debug_srcinfo
 *(.debug_srcinfo)

.debug_sfnames
 *(.debug_sfnames)

.debug_aranges  0x0000000000000000     0x12a0
 *(.debug_aranges)
 .debug_aranges
                0x0000000000000000       0x28 ../ucosii_binary_game_hal_part1_bsp//obj/HAL/src/crt0.o
 .debug_aranges
                0x0000000000000028       0x20 obj/default/hello_ucosii.o
 .debug_aranges
                0x0000000000000048       0x20 /opt/intelFPGA/20.1.1/nios2eds/bin/gnu/H-x86_64-pc-linux-gnu/bin/../lib/gcc/nios2-elf/10.1.1/../../../../../H-x86_64-pc-linux-gnu/nios2-elf/lib/mhw-mulx/libc.a(lib_a-memcpy.o)
 .debug_aranges
                0x0000000000000068       0x28 /opt/intelFPGA/20.1.1/nios2eds/bin/gnu/H-x86_64-pc-linux-gnu/bin/../lib/gcc/nios2-elf/10.1.1/../../../../../H-x86_64-pc-linux-gnu/nios2-elf/lib/mhw-mulx/libc.a(lib_a-printf.o)
 .debug_aranges
                0x0000000000000090       0x28 /opt/intelFPGA/20.1.1/nios2eds/bin/gnu/H-x86_64-pc-linux-gnu/bin/../lib/gcc/nios2-elf/10.1.1/../../../../../H-x86_64-pc-linux-gnu/nios2-elf/lib/mhw-mulx/libc.a(lib_a-rand.o)
 .debug_aranges
                0x00000000000000b8       0x20 /opt/intelFPGA/20.1.1/nios2eds/bin/gnu/H-x86_64-pc-linux-gnu/bin/../lib/gcc/nios2-elf/10.1.1/../../../../../H-x86_64-pc-linux-gnu/nios2-elf/lib/mhw-mulx/libc.a(lib_a-time.o)
 .debug_aranges
                0x00000000000000d8       0x30 /opt/intelFPGA/20.1.1/nios2eds/bin/gnu/H-x86_64-pc-linux-gnu/bin/../lib/gcc/nios2-elf/10.1.1/../../../../../H-x86_64-pc-linux-gnu/nios2-elf/lib/mhw-mulx/libc.a(lib_a-vfprintf.o)
 .debug_aranges
                0x0000000000000108       0x20 /opt/intelFPGA/20.1.1/nios2eds/bin/gnu/H-x86_64-pc-linux-gnu/bin/../lib/gcc/nios2-elf/10.1.1/../../../../../H-x86_64-pc-linux-gnu/nios2-elf/lib/mhw-mulx/libc.a(lib_a-wsetup.o)
 .debug_aranges
                0x0000000000000128       0x28 /opt/intelFPGA/20.1.1/nios2eds/bin/gnu/H-x86_64-pc-linux-gnu/bin/../lib/gcc/nios2-elf/10.1.1/../../../../../H-x86_64-pc-linux-gnu/nios2-elf/lib/mhw-mulx/libc.a(lib_a-dtoa.o)
 .debug_aranges
                0x0000000000000150       0x30 /opt/intelFPGA/20.1.1/nios2eds/bin/gnu/H-x86_64-pc-linux-gnu/bin/../lib/gcc/nios2-elf/10.1.1/../../../../../H-x86_64-pc-linux-gnu/nios2-elf/lib/mhw-mulx/libc.a(lib_a-fflush.o)
 .debug_aranges
                0x0000000000000180       0x68 /opt/intelFPGA/20.1.1/nios2eds/bin/gnu/H-x86_64-pc-linux-gnu/bin/../lib/gcc/nios2-elf/10.1.1/../../../../../H-x86_64-pc-linux-gnu/nios2-elf/lib/mhw-mulx/libc.a(lib_a-findfp.o)
 .debug_aranges
                0x00000000000001e8       0x28 /opt/intelFPGA/20.1.1/nios2eds/bin/gnu/H-x86_64-pc-linux-gnu/bin/../lib/gcc/nios2-elf/10.1.1/../../../../../H-x86_64-pc-linux-gnu/nios2-elf/lib/mhw-mulx/libc.a(lib_a-freer.o)
 .debug_aranges
                0x0000000000000210       0x28 /opt/intelFPGA/20.1.1/nios2eds/bin/gnu/H-x86_64-pc-linux-gnu/bin/../lib/gcc/nios2-elf/10.1.1/../../../../../H-x86_64-pc-linux-gnu/nios2-elf/lib/mhw-mulx/libc.a(lib_a-fwalk.o)
 .debug_aranges
                0x0000000000000238       0x20 /opt/intelFPGA/20.1.1/nios2eds/bin/gnu/H-x86_64-pc-linux-gnu/bin/../lib/gcc/nios2-elf/10.1.1/../../../../../H-x86_64-pc-linux-gnu/nios2-elf/lib/mhw-mulx/libc.a(lib_a-gettimeofdayr.o)
 .debug_aranges
                0x0000000000000258       0x18 /opt/intelFPGA/20.1.1/nios2eds/bin/gnu/H-x86_64-pc-linux-gnu/bin/../lib/gcc/nios2-elf/10.1.1/../../../../../H-x86_64-pc-linux-gnu/nios2-elf/lib/mhw-mulx/libc.a(lib_a-impure.o)
 .debug_aranges
                0x0000000000000270       0x18 /opt/intelFPGA/20.1.1/nios2eds/bin/gnu/H-x86_64-pc-linux-gnu/bin/../lib/gcc/nios2-elf/10.1.1/../../../../../H-x86_64-pc-linux-gnu/nios2-elf/lib/mhw-mulx/libc.a(lib_a-int_errno.o)
 .debug_aranges
                0x0000000000000288       0x30 /opt/intelFPGA/20.1.1/nios2eds/bin/gnu/H-x86_64-pc-linux-gnu/bin/../lib/gcc/nios2-elf/10.1.1/../../../../../H-x86_64-pc-linux-gnu/nios2-elf/lib/mhw-mulx/libc.a(lib_a-localeconv.o)
 .debug_aranges
                0x00000000000002b8       0x28 /opt/intelFPGA/20.1.1/nios2eds/bin/gnu/H-x86_64-pc-linux-gnu/bin/../lib/gcc/nios2-elf/10.1.1/../../../../../H-x86_64-pc-linux-gnu/nios2-elf/lib/mhw-mulx/libc.a(lib_a-makebuf.o)
 .debug_aranges
                0x00000000000002e0       0x20 /opt/intelFPGA/20.1.1/nios2eds/bin/gnu/H-x86_64-pc-linux-gnu/bin/../lib/gcc/nios2-elf/10.1.1/../../../../../H-x86_64-pc-linux-gnu/nios2-elf/lib/mhw-mulx/libc.a(lib_a-mallocr.o)
 .debug_aranges
                0x0000000000000300       0x20 /opt/intelFPGA/20.1.1/nios2eds/bin/gnu/H-x86_64-pc-linux-gnu/bin/../lib/gcc/nios2-elf/10.1.1/../../../../../H-x86_64-pc-linux-gnu/nios2-elf/lib/mhw-mulx/libc.a(lib_a-memchr.o)
 .debug_aranges
                0x0000000000000320       0x20 /opt/intelFPGA/20.1.1/nios2eds/bin/gnu/H-x86_64-pc-linux-gnu/bin/../lib/gcc/nios2-elf/10.1.1/../../../../../H-x86_64-pc-linux-gnu/nios2-elf/lib/mhw-mulx/libc.a(lib_a-memset.o)
 .debug_aranges
                0x0000000000000340       0xb0 /opt/intelFPGA/20.1.1/nios2eds/bin/gnu/H-x86_64-pc-linux-gnu/bin/../lib/gcc/nios2-elf/10.1.1/../../../../../H-x86_64-pc-linux-gnu/nios2-elf/lib/mhw-mulx/libc.a(lib_a-mprec.o)
 .debug_aranges
                0x00000000000003f0       0x20 /opt/intelFPGA/20.1.1/nios2eds/bin/gnu/H-x86_64-pc-linux-gnu/bin/../lib/gcc/nios2-elf/10.1.1/../../../../../H-x86_64-pc-linux-gnu/nios2-elf/lib/mhw-mulx/libc.a(lib_a-sbrkr.o)
 .debug_aranges
                0x0000000000000410       0x40 /opt/intelFPGA/20.1.1/nios2eds/bin/gnu/H-x86_64-pc-linux-gnu/bin/../lib/gcc/nios2-elf/10.1.1/../../../../../H-x86_64-pc-linux-gnu/nios2-elf/lib/mhw-mulx/libc.a(lib_a-stdio.o)
 .debug_aranges
                0x0000000000000450       0x20 /opt/intelFPGA/20.1.1/nios2eds/bin/gnu/H-x86_64-pc-linux-gnu/bin/../lib/gcc/nios2-elf/10.1.1/../../../../../H-x86_64-pc-linux-gnu/nios2-elf/lib/mhw-mulx/libc.a(lib_a-strlen.o)
 .debug_aranges
                0x0000000000000470       0x40 /opt/intelFPGA/20.1.1/nios2eds/bin/gnu/H-x86_64-pc-linux-gnu/bin/../lib/gcc/nios2-elf/10.1.1/../../../../../H-x86_64-pc-linux-gnu/nios2-elf/lib/mhw-mulx/libc.a(lib_a-vfiprintf.o)
 .debug_aranges
                0x00000000000004b0       0x20 /opt/intelFPGA/20.1.1/nios2eds/bin/gnu/H-x86_64-pc-linux-gnu/bin/../lib/gcc/nios2-elf/10.1.1/../../../../../H-x86_64-pc-linux-gnu/nios2-elf/lib/mhw-mulx/libc.a(lib_a-writer.o)
 .debug_aranges
                0x00000000000004d0       0x20 /opt/intelFPGA/20.1.1/nios2eds/bin/gnu/H-x86_64-pc-linux-gnu/bin/../lib/gcc/nios2-elf/10.1.1/../../../../../H-x86_64-pc-linux-gnu/nios2-elf/lib/mhw-mulx/libc.a(closer.o)
 .debug_aranges
                0x00000000000004f0       0x28 /opt/intelFPGA/20.1.1/nios2eds/bin/gnu/H-x86_64-pc-linux-gnu/bin/../lib/gcc/nios2-elf/10.1.1/../../../../../H-x86_64-pc-linux-gnu/nios2-elf/lib/mhw-mulx/libc.a(lib_a-assert.o)
 .debug_aranges
                0x0000000000000518       0x20 /opt/intelFPGA/20.1.1/nios2eds/bin/gnu/H-x86_64-pc-linux-gnu/bin/../lib/gcc/nios2-elf/10.1.1/../../../../../H-x86_64-pc-linux-gnu/nios2-elf/lib/mhw-mulx/libc.a(lib_a-callocr.o)
 .debug_aranges
                0x0000000000000538       0x30 /opt/intelFPGA/20.1.1/nios2eds/bin/gnu/H-x86_64-pc-linux-gnu/bin/../lib/gcc/nios2-elf/10.1.1/../../../../../H-x86_64-pc-linux-gnu/nios2-elf/lib/mhw-mulx/libc.a(lib_a-fclose.o)
 .debug_aranges
                0x0000000000000568       0x28 /opt/intelFPGA/20.1.1/nios2eds/bin/gnu/H-x86_64-pc-linux-gnu/bin/../lib/gcc/nios2-elf/10.1.1/../../../../../H-x86_64-pc-linux-gnu/nios2-elf/lib/mhw-mulx/libc.a(lib_a-fiprintf.o)
 .debug_aranges
                0x0000000000000590       0x30 /opt/intelFPGA/20.1.1/nios2eds/bin/gnu/H-x86_64-pc-linux-gnu/bin/../lib/gcc/nios2-elf/10.1.1/../../../../../H-x86_64-pc-linux-gnu/nios2-elf/lib/mhw-mulx/libc.a(lib_a-fputwc.o)
 .debug_aranges
                0x00000000000005c0       0x20 /opt/intelFPGA/20.1.1/nios2eds/bin/gnu/H-x86_64-pc-linux-gnu/bin/../lib/gcc/nios2-elf/10.1.1/../../../../../H-x86_64-pc-linux-gnu/nios2-elf/lib/mhw-mulx/libc.a(lib_a-fstatr.o)
 .debug_aranges
                0x00000000000005e0       0x20 /opt/intelFPGA/20.1.1/nios2eds/bin/gnu/H-x86_64-pc-linux-gnu/bin/../lib/gcc/nios2-elf/10.1.1/../../../../../H-x86_64-pc-linux-gnu/nios2-elf/lib/mhw-mulx/libc.a(lib_a-fvwrite.o)
 .debug_aranges
                0x0000000000000600       0x20 /opt/intelFPGA/20.1.1/nios2eds/bin/gnu/H-x86_64-pc-linux-gnu/bin/../lib/gcc/nios2-elf/10.1.1/../../../../../H-x86_64-pc-linux-gnu/nios2-elf/lib/mhw-mulx/libc.a(lib_a-isattyr.o)
 .debug_aranges
                0x0000000000000620       0x30 /opt/intelFPGA/20.1.1/nios2eds/bin/gnu/H-x86_64-pc-linux-gnu/bin/../lib/gcc/nios2-elf/10.1.1/../../../../../H-x86_64-pc-linux-gnu/nios2-elf/lib/mhw-mulx/libc.a(lib_a-locale.o)
 .debug_aranges
                0x0000000000000650       0x20 /opt/intelFPGA/20.1.1/nios2eds/bin/gnu/H-x86_64-pc-linux-gnu/bin/../lib/gcc/nios2-elf/10.1.1/../../../../../H-x86_64-pc-linux-gnu/nios2-elf/lib/mhw-mulx/libc.a(lib_a-lseekr.o)
 .debug_aranges
                0x0000000000000670       0x28 /opt/intelFPGA/20.1.1/nios2eds/bin/gnu/H-x86_64-pc-linux-gnu/bin/../lib/gcc/nios2-elf/10.1.1/../../../../../H-x86_64-pc-linux-gnu/nios2-elf/lib/mhw-mulx/libc.a(lib_a-mbtowc_r.o)
 .debug_aranges
                0x0000000000000698       0x20 /opt/intelFPGA/20.1.1/nios2eds/bin/gnu/H-x86_64-pc-linux-gnu/bin/../lib/gcc/nios2-elf/10.1.1/../../../../../H-x86_64-pc-linux-gnu/nios2-elf/lib/mhw-mulx/libc.a(lib_a-memmove.o)
 .debug_aranges
                0x00000000000006b8       0x20 /opt/intelFPGA/20.1.1/nios2eds/bin/gnu/H-x86_64-pc-linux-gnu/bin/../lib/gcc/nios2-elf/10.1.1/../../../../../H-x86_64-pc-linux-gnu/nios2-elf/lib/mhw-mulx/libc.a(lib_a-readr.o)
 .debug_aranges
                0x00000000000006d8       0x20 /opt/intelFPGA/20.1.1/nios2eds/bin/gnu/H-x86_64-pc-linux-gnu/bin/../lib/gcc/nios2-elf/10.1.1/../../../../../H-x86_64-pc-linux-gnu/nios2-elf/lib/mhw-mulx/libc.a(lib_a-reallocr.o)
 .debug_aranges
                0x00000000000006f8       0x20 /opt/intelFPGA/20.1.1/nios2eds/bin/gnu/H-x86_64-pc-linux-gnu/bin/../lib/gcc/nios2-elf/10.1.1/../../../../../H-x86_64-pc-linux-gnu/nios2-elf/lib/mhw-mulx/libc.a(lib_a-strcmp.o)
 .debug_aranges
                0x0000000000000718       0x20 /opt/intelFPGA/20.1.1/nios2eds/bin/gnu/H-x86_64-pc-linux-gnu/bin/../lib/gcc/nios2-elf/10.1.1/../../../../../H-x86_64-pc-linux-gnu/nios2-elf/lib/mhw-mulx/libc.a(lib_a-vfiprintfr_1.o)
 .debug_aranges
                0x0000000000000738       0x28 /opt/intelFPGA/20.1.1/nios2eds/bin/gnu/H-x86_64-pc-linux-gnu/bin/../lib/gcc/nios2-elf/10.1.1/../../../../../H-x86_64-pc-linux-gnu/nios2-elf/lib/mhw-mulx/libc.a(lib_a-wbuf.o)
 .debug_aranges
                0x0000000000000760       0x28 /opt/intelFPGA/20.1.1/nios2eds/bin/gnu/H-x86_64-pc-linux-gnu/bin/../lib/gcc/nios2-elf/10.1.1/../../../../../H-x86_64-pc-linux-gnu/nios2-elf/lib/mhw-mulx/libc.a(lib_a-wcrtomb.o)
 .debug_aranges
                0x0000000000000788       0x28 /opt/intelFPGA/20.1.1/nios2eds/bin/gnu/H-x86_64-pc-linux-gnu/bin/../lib/gcc/nios2-elf/10.1.1/../../../../../H-x86_64-pc-linux-gnu/nios2-elf/lib/mhw-mulx/libc.a(lib_a-wctomb_r.o)
 .debug_aranges
                0x00000000000007b0       0x20 /opt/intelFPGA/20.1.1/nios2eds/bin/gnu/H-x86_64-pc-linux-gnu/bin/../lib/gcc/nios2-elf/10.1.1/../../../../../H-x86_64-pc-linux-gnu/nios2-elf/lib/mhw-mulx/libc.a(lib_a-abort.o)
 .debug_aranges
                0x00000000000007d0       0x18 /opt/intelFPGA/20.1.1/nios2eds/bin/gnu/H-x86_64-pc-linux-gnu/bin/../lib/gcc/nios2-elf/10.1.1/../../../../../H-x86_64-pc-linux-gnu/nios2-elf/lib/mhw-mulx/libc.a(lib_a-ctype_.o)
 .debug_aranges
                0x00000000000007e8       0x58 /opt/intelFPGA/20.1.1/nios2eds/bin/gnu/H-x86_64-pc-linux-gnu/bin/../lib/gcc/nios2-elf/10.1.1/../../../../../H-x86_64-pc-linux-gnu/nios2-elf/lib/mhw-mulx/libc.a(lib_a-signal.o)
 .debug_aranges
                0x0000000000000840       0x28 /opt/intelFPGA/20.1.1/nios2eds/bin/gnu/H-x86_64-pc-linux-gnu/bin/../lib/gcc/nios2-elf/10.1.1/../../../../../H-x86_64-pc-linux-gnu/nios2-elf/lib/mhw-mulx/libc.a(lib_a-signalr.o)
 .debug_aranges
                0x0000000000000868       0x20 /opt/intelFPGA/20.1.1/nios2eds/bin/gnu/H-x86_64-pc-linux-gnu/bin/../lib/gcc/nios2-elf/10.1.1/mhw-mulx/libgcc.a(_udivdi3.o)
 .debug_aranges
                0x0000000000000888       0x20 /opt/intelFPGA/20.1.1/nios2eds/bin/gnu/H-x86_64-pc-linux-gnu/bin/../lib/gcc/nios2-elf/10.1.1/mhw-mulx/libgcc.a(_umoddi3.o)
 .debug_aranges
                0x00000000000008a8       0x20 /opt/intelFPGA/20.1.1/nios2eds/bin/gnu/H-x86_64-pc-linux-gnu/bin/../lib/gcc/nios2-elf/10.1.1/mhw-mulx/libgcc.a(lib2-divmod.o)
 .debug_aranges
                0x00000000000008c8       0x20 /opt/intelFPGA/20.1.1/nios2eds/bin/gnu/H-x86_64-pc-linux-gnu/bin/../lib/gcc/nios2-elf/10.1.1/mhw-mulx/libgcc.a(adddf3.o)
 .debug_aranges
                0x00000000000008e8       0x20 /opt/intelFPGA/20.1.1/nios2eds/bin/gnu/H-x86_64-pc-linux-gnu/bin/../lib/gcc/nios2-elf/10.1.1/mhw-mulx/libgcc.a(divdf3.o)
 .debug_aranges
                0x0000000000000908       0x20 /opt/intelFPGA/20.1.1/nios2eds/bin/gnu/H-x86_64-pc-linux-gnu/bin/../lib/gcc/nios2-elf/10.1.1/mhw-mulx/libgcc.a(eqdf2.o)
 .debug_aranges
                0x0000000000000928       0x20 /opt/intelFPGA/20.1.1/nios2eds/bin/gnu/H-x86_64-pc-linux-gnu/bin/../lib/gcc/nios2-elf/10.1.1/mhw-mulx/libgcc.a(gedf2.o)
 .debug_aranges
                0x0000000000000948       0x20 /opt/intelFPGA/20.1.1/nios2eds/bin/gnu/H-x86_64-pc-linux-gnu/bin/../lib/gcc/nios2-elf/10.1.1/mhw-mulx/libgcc.a(ledf2.o)
 .debug_aranges
                0x0000000000000968       0x20 /opt/intelFPGA/20.1.1/nios2eds/bin/gnu/H-x86_64-pc-linux-gnu/bin/../lib/gcc/nios2-elf/10.1.1/mhw-mulx/libgcc.a(muldf3.o)
 .debug_aranges
                0x0000000000000988       0x20 /opt/intelFPGA/20.1.1/nios2eds/bin/gnu/H-x86_64-pc-linux-gnu/bin/../lib/gcc/nios2-elf/10.1.1/mhw-mulx/libgcc.a(subdf3.o)
 .debug_aranges
                0x00000000000009a8       0x20 /opt/intelFPGA/20.1.1/nios2eds/bin/gnu/H-x86_64-pc-linux-gnu/bin/../lib/gcc/nios2-elf/10.1.1/mhw-mulx/libgcc.a(unorddf2.o)
 .debug_aranges
                0x00000000000009c8       0x20 /opt/intelFPGA/20.1.1/nios2eds/bin/gnu/H-x86_64-pc-linux-gnu/bin/../lib/gcc/nios2-elf/10.1.1/mhw-mulx/libgcc.a(fixdfsi.o)
 .debug_aranges
                0x00000000000009e8       0x20 /opt/intelFPGA/20.1.1/nios2eds/bin/gnu/H-x86_64-pc-linux-gnu/bin/../lib/gcc/nios2-elf/10.1.1/mhw-mulx/libgcc.a(floatsidf.o)
 .debug_aranges
                0x0000000000000a08       0x20 /opt/intelFPGA/20.1.1/nios2eds/bin/gnu/H-x86_64-pc-linux-gnu/bin/../lib/gcc/nios2-elf/10.1.1/mhw-mulx/libgcc.a(floatunsidf.o)
 .debug_aranges
                0x0000000000000a28       0x18 /opt/intelFPGA/20.1.1/nios2eds/bin/gnu/H-x86_64-pc-linux-gnu/bin/../lib/gcc/nios2-elf/10.1.1/mhw-mulx/libgcc.a(_clz.o)
 .debug_aranges
                0x0000000000000a40       0x20 /opt/intelFPGA/20.1.1/nios2eds/bin/gnu/H-x86_64-pc-linux-gnu/bin/../lib/gcc/nios2-elf/10.1.1/mhw-mulx/libgcc.a(_clzsi2.o)
 .debug_aranges
                0x0000000000000a60       0x20 ../ucosii_binary_game_hal_part1_bsp//libucosii_bsp.a(alt_close.o)
 .debug_aranges
                0x0000000000000a80       0x20 ../ucosii_binary_game_hal_part1_bsp//libucosii_bsp.a(alt_dev.o)
 .debug_aranges
                0x0000000000000aa0       0x18 ../ucosii_binary_game_hal_part1_bsp//libucosii_bsp.a(alt_errno.o)
 .debug_aranges
                0x0000000000000ab8       0x20 ../ucosii_binary_game_hal_part1_bsp//libucosii_bsp.a(alt_exit.o)
 .debug_aranges
                0x0000000000000ad8       0x20 ../ucosii_binary_game_hal_part1_bsp//libucosii_bsp.a(alt_fstat.o)
 .debug_aranges
                0x0000000000000af8       0x20 ../ucosii_binary_game_hal_part1_bsp//libucosii_bsp.a(alt_getpid.o)
 .debug_aranges
                0x0000000000000b18       0x20 ../ucosii_binary_game_hal_part1_bsp//libucosii_bsp.a(alt_gettod.o)
 .debug_aranges
                0x0000000000000b38       0x20 ../ucosii_binary_game_hal_part1_bsp//libucosii_bsp.a(alt_isatty.o)
 .debug_aranges
                0x0000000000000b58       0x20 ../ucosii_binary_game_hal_part1_bsp//libucosii_bsp.a(alt_kill.o)
 .debug_aranges
                0x0000000000000b78       0x20 ../ucosii_binary_game_hal_part1_bsp//libucosii_bsp.a(alt_load.o)
 .debug_aranges
                0x0000000000000b98       0x20 ../ucosii_binary_game_hal_part1_bsp//libucosii_bsp.a(alt_lseek.o)
 .debug_aranges
                0x0000000000000bb8       0x20 ../ucosii_binary_game_hal_part1_bsp//libucosii_bsp.a(alt_main.o)
 .debug_aranges
                0x0000000000000bd8       0x20 ../ucosii_binary_game_hal_part1_bsp//libucosii_bsp.a(alt_read.o)
 .debug_aranges
                0x0000000000000bf8       0x20 ../ucosii_binary_game_hal_part1_bsp//libucosii_bsp.a(alt_release_fd.o)
 .debug_aranges
                0x0000000000000c18       0x20 ../ucosii_binary_game_hal_part1_bsp//libucosii_bsp.a(alt_sbrk.o)
 .debug_aranges
                0x0000000000000c38       0x20 ../ucosii_binary_game_hal_part1_bsp//libucosii_bsp.a(alt_tick.o)
 .debug_aranges
                0x0000000000000c58       0x20 ../ucosii_binary_game_hal_part1_bsp//libucosii_bsp.a(alt_write.o)
 .debug_aranges
                0x0000000000000c78       0x20 ../ucosii_binary_game_hal_part1_bsp//libucosii_bsp.a(alt_env_lock.o)
 .debug_aranges
                0x0000000000000c98       0x20 ../ucosii_binary_game_hal_part1_bsp//libucosii_bsp.a(alt_malloc_lock.o)
 .debug_aranges
                0x0000000000000cb8       0x20 ../ucosii_binary_game_hal_part1_bsp//libucosii_bsp.a(os_core.o)
 .debug_aranges
                0x0000000000000cd8       0x20 ../ucosii_binary_game_hal_part1_bsp//libucosii_bsp.a(os_dbg.o)
 .debug_aranges
                0x0000000000000cf8       0x20 ../ucosii_binary_game_hal_part1_bsp//libucosii_bsp.a(os_flag.o)
 .debug_aranges
                0x0000000000000d18       0x20 ../ucosii_binary_game_hal_part1_bsp//libucosii_bsp.a(os_mem.o)
 .debug_aranges
                0x0000000000000d38       0x20 ../ucosii_binary_game_hal_part1_bsp//libucosii_bsp.a(os_mutex.o)
 .debug_aranges
                0x0000000000000d58       0x20 ../ucosii_binary_game_hal_part1_bsp//libucosii_bsp.a(os_q.o)
 .debug_aranges
                0x0000000000000d78       0x20 ../ucosii_binary_game_hal_part1_bsp//libucosii_bsp.a(os_sem.o)
 .debug_aranges
                0x0000000000000d98       0x20 ../ucosii_binary_game_hal_part1_bsp//libucosii_bsp.a(os_task.o)
 .debug_aranges
                0x0000000000000db8       0x20 ../ucosii_binary_game_hal_part1_bsp//libucosii_bsp.a(os_time.o)
 .debug_aranges
                0x0000000000000dd8       0x20 ../ucosii_binary_game_hal_part1_bsp//libucosii_bsp.a(alt_sys_init.o)
 .debug_aranges
                0x0000000000000df8       0x20 ../ucosii_binary_game_hal_part1_bsp//libucosii_bsp.a(altera_avalon_jtag_uart_fd.o)
 .debug_aranges
                0x0000000000000e18       0x20 ../ucosii_binary_game_hal_part1_bsp//libucosii_bsp.a(altera_avalon_jtag_uart_init.o)
 .debug_aranges
                0x0000000000000e38       0x20 ../ucosii_binary_game_hal_part1_bsp//libucosii_bsp.a(altera_avalon_jtag_uart_ioctl.o)
 .debug_aranges
                0x0000000000000e58       0x20 ../ucosii_binary_game_hal_part1_bsp//libucosii_bsp.a(altera_avalon_jtag_uart_read.o)
 .debug_aranges
                0x0000000000000e78       0x20 ../ucosii_binary_game_hal_part1_bsp//libucosii_bsp.a(altera_avalon_jtag_uart_write.o)
 .debug_aranges
                0x0000000000000e98       0x20 ../ucosii_binary_game_hal_part1_bsp//libucosii_bsp.a(altera_avalon_timer_sc.o)
 .debug_aranges
                0x0000000000000eb8       0x20 ../ucosii_binary_game_hal_part1_bsp//libucosii_bsp.a(altera_up_avalon_character_lcd.o)
 .debug_aranges
                0x0000000000000ed8       0x20 ../ucosii_binary_game_hal_part1_bsp//libucosii_bsp.a(altera_up_avalon_irda.o)
 .debug_aranges
                0x0000000000000ef8       0x20 ../ucosii_binary_game_hal_part1_bsp//libucosii_bsp.a(altera_up_avalon_ps2.o)
 .debug_aranges
                0x0000000000000f18       0x20 ../ucosii_binary_game_hal_part1_bsp//libucosii_bsp.a(altera_up_avalon_rs232.o)
 .debug_aranges
                0x0000000000000f38       0x20 ../ucosii_binary_game_hal_part1_bsp//libucosii_bsp.a(alt_alarm_start.o)
 .debug_aranges
                0x0000000000000f58       0x20 ../ucosii_binary_game_hal_part1_bsp//libucosii_bsp.a(alt_dcache_flush_all.o)
 .debug_aranges
                0x0000000000000f78       0x20 ../ucosii_binary_game_hal_part1_bsp//libucosii_bsp.a(alt_dev_llist_insert.o)
 .debug_aranges
                0x0000000000000f98       0x20 ../ucosii_binary_game_hal_part1_bsp//libucosii_bsp.a(alt_do_ctors.o)
 .debug_aranges
                0x0000000000000fb8       0x20 ../ucosii_binary_game_hal_part1_bsp//libucosii_bsp.a(alt_do_dtors.o)
 .debug_aranges
                0x0000000000000fd8       0x20 ../ucosii_binary_game_hal_part1_bsp//libucosii_bsp.a(alt_find_dev.o)
 .debug_aranges
                0x0000000000000ff8       0x20 ../ucosii_binary_game_hal_part1_bsp//libucosii_bsp.a(alt_icache_flush_all.o)
 .debug_aranges
                0x0000000000001018       0x20 ../ucosii_binary_game_hal_part1_bsp//libucosii_bsp.a(alt_io_redirect.o)
 .debug_aranges
                0x0000000000001038       0x20 ../ucosii_binary_game_hal_part1_bsp//libucosii_bsp.a(alt_irq_register.o)
 .debug_aranges
                0x0000000000001058       0x18 ../ucosii_binary_game_hal_part1_bsp//libucosii_bsp.a(alt_irq_vars.o)
 .debug_aranges
                0x0000000000001070       0x20 ../ucosii_binary_game_hal_part1_bsp//libucosii_bsp.a(alt_open.o)
 .debug_aranges
                0x0000000000001090       0x20 ../ucosii_binary_game_hal_part1_bsp//libucosii_bsp.a(altera_nios2_gen2_irq.o)
 .debug_aranges
                0x00000000000010b0       0x20 ../ucosii_binary_game_hal_part1_bsp//libucosii_bsp.a(os_cpu_a.o)
 .debug_aranges
                0x00000000000010d0       0x20 ../ucosii_binary_game_hal_part1_bsp//libucosii_bsp.a(os_cpu_c.o)
 .debug_aranges
                0x00000000000010f0       0x20 ../ucosii_binary_game_hal_part1_bsp//libucosii_bsp.a(alt_find_file.o)
 .debug_aranges
                0x0000000000001110       0x20 ../ucosii_binary_game_hal_part1_bsp//libucosii_bsp.a(alt_get_fd.o)
 .debug_aranges
                0x0000000000001130       0x20 ../ucosii_binary_game_hal_part1_bsp//libucosii_bsp.a(alt_icache_flush.o)
 .debug_aranges
                0x0000000000001150       0x30 ../ucosii_binary_game_hal_part1_bsp//libucosii_bsp.a(alt_irq_entry.o)
 .debug_aranges
                0x0000000000001180       0x20 ../ucosii_binary_game_hal_part1_bsp//libucosii_bsp.a(alt_irq_handler.o)
 .debug_aranges
                0x00000000000011a0       0x38 ../ucosii_binary_game_hal_part1_bsp//libucosii_bsp.a(alt_exception_entry.o)
 .debug_aranges
                0x00000000000011d8       0x28 ../ucosii_binary_game_hal_part1_bsp//libucosii_bsp.a(alt_instruction_exception_entry.o)
 .debug_aranges
                0x0000000000001200       0x20 /opt/intelFPGA/20.1.1/nios2eds/bin/gnu/H-x86_64-pc-linux-gnu/bin/../lib/gcc/nios2-elf/10.1.1/../../../../../H-x86_64-pc-linux-gnu/nios2-elf/lib/mhw-mulx/libc.a(lib_a-atexit.o)
 .debug_aranges
                0x0000000000001220       0x20 /opt/intelFPGA/20.1.1/nios2eds/bin/gnu/H-x86_64-pc-linux-gnu/bin/../lib/gcc/nios2-elf/10.1.1/../../../../../H-x86_64-pc-linux-gnu/nios2-elf/lib/mhw-mulx/libc.a(lib_a-exit.o)
 .debug_aranges
                0x0000000000001240       0x20 /opt/intelFPGA/20.1.1/nios2eds/bin/gnu/H-x86_64-pc-linux-gnu/bin/../lib/gcc/nios2-elf/10.1.1/../../../../../H-x86_64-pc-linux-gnu/nios2-elf/lib/mhw-mulx/libc.a(lib_a-memcmp.o)
 .debug_aranges
                0x0000000000001260       0x20 /opt/intelFPGA/20.1.1/nios2eds/bin/gnu/H-x86_64-pc-linux-gnu/bin/../lib/gcc/nios2-elf/10.1.1/../../../../../H-x86_64-pc-linux-gnu/nios2-elf/lib/mhw-mulx/libc.a(lib_a-__atexit.o)
 .debug_aranges
                0x0000000000001280       0x20 /opt/intelFPGA/20.1.1/nios2eds/bin/gnu/H-x86_64-pc-linux-gnu/bin/../lib/gcc/nios2-elf/10.1.1/../../../../../H-x86_64-pc-linux-gnu/nios2-elf/lib/mhw-mulx/libc.a(lib_a-__call_atexit.o)

.debug_pubnames
 *(.debug_pubnames)

.debug_info     0x0000000000000000    0x3ac19
 *(.debug_info .gnu.linkonce.wi.*)
 .debug_info    0x0000000000000000       0x22 ../ucosii_binary_game_hal_part1_bsp//obj/HAL/src/crt0.o
 .debug_info    0x0000000000000022      0x751 obj/default/hello_ucosii.o
 .debug_info    0x0000000000000773      0x162 /opt/intelFPGA/20.1.1/nios2eds/bin/gnu/H-x86_64-pc-linux-gnu/bin/../lib/gcc/nios2-elf/10.1.1/../../../../../H-x86_64-pc-linux-gnu/nios2-elf/lib/mhw-mulx/libc.a(lib_a-memcpy.o)
 .debug_info    0x00000000000008d5      0xa3e /opt/intelFPGA/20.1.1/nios2eds/bin/gnu/H-x86_64-pc-linux-gnu/bin/../lib/gcc/nios2-elf/10.1.1/../../../../../H-x86_64-pc-linux-gnu/nios2-elf/lib/mhw-mulx/libc.a(lib_a-printf.o)
 .debug_info    0x0000000000001313      0x95b /opt/intelFPGA/20.1.1/nios2eds/bin/gnu/H-x86_64-pc-linux-gnu/bin/../lib/gcc/nios2-elf/10.1.1/../../../../../H-x86_64-pc-linux-gnu/nios2-elf/lib/mhw-mulx/libc.a(lib_a-rand.o)
 .debug_info    0x0000000000001c6e      0x9ba /opt/intelFPGA/20.1.1/nios2eds/bin/gnu/H-x86_64-pc-linux-gnu/bin/../lib/gcc/nios2-elf/10.1.1/../../../../../H-x86_64-pc-linux-gnu/nios2-elf/lib/mhw-mulx/libc.a(lib_a-time.o)
 .debug_info    0x0000000000002628     0x1b5a /opt/intelFPGA/20.1.1/nios2eds/bin/gnu/H-x86_64-pc-linux-gnu/bin/../lib/gcc/nios2-elf/10.1.1/../../../../../H-x86_64-pc-linux-gnu/nios2-elf/lib/mhw-mulx/libc.a(lib_a-vfprintf.o)
 .debug_info    0x0000000000004182      0x9c9 /opt/intelFPGA/20.1.1/nios2eds/bin/gnu/H-x86_64-pc-linux-gnu/bin/../lib/gcc/nios2-elf/10.1.1/../../../../../H-x86_64-pc-linux-gnu/nios2-elf/lib/mhw-mulx/libc.a(lib_a-wsetup.o)
 .debug_info    0x0000000000004b4b     0x1a36 /opt/intelFPGA/20.1.1/nios2eds/bin/gnu/H-x86_64-pc-linux-gnu/bin/../lib/gcc/nios2-elf/10.1.1/../../../../../H-x86_64-pc-linux-gnu/nios2-elf/lib/mhw-mulx/libc.a(lib_a-dtoa.o)
 .debug_info    0x0000000000006581      0xbf6 /opt/intelFPGA/20.1.1/nios2eds/bin/gnu/H-x86_64-pc-linux-gnu/bin/../lib/gcc/nios2-elf/10.1.1/../../../../../H-x86_64-pc-linux-gnu/nios2-elf/lib/mhw-mulx/libc.a(lib_a-fflush.o)
 .debug_info    0x0000000000007177      0xee9 /opt/intelFPGA/20.1.1/nios2eds/bin/gnu/H-x86_64-pc-linux-gnu/bin/../lib/gcc/nios2-elf/10.1.1/../../../../../H-x86_64-pc-linux-gnu/nios2-elf/lib/mhw-mulx/libc.a(lib_a-findfp.o)
 .debug_info    0x0000000000008060      0xced /opt/intelFPGA/20.1.1/nios2eds/bin/gnu/H-x86_64-pc-linux-gnu/bin/../lib/gcc/nios2-elf/10.1.1/../../../../../H-x86_64-pc-linux-gnu/nios2-elf/lib/mhw-mulx/libc.a(lib_a-freer.o)
 .debug_info    0x0000000000008d4d      0xa6d /opt/intelFPGA/20.1.1/nios2eds/bin/gnu/H-x86_64-pc-linux-gnu/bin/../lib/gcc/nios2-elf/10.1.1/../../../../../H-x86_64-pc-linux-gnu/nios2-elf/lib/mhw-mulx/libc.a(lib_a-fwalk.o)
 .debug_info    0x00000000000097ba      0x9ec /opt/intelFPGA/20.1.1/nios2eds/bin/gnu/H-x86_64-pc-linux-gnu/bin/../lib/gcc/nios2-elf/10.1.1/../../../../../H-x86_64-pc-linux-gnu/nios2-elf/lib/mhw-mulx/libc.a(lib_a-gettimeofdayr.o)
 .debug_info    0x000000000000a1a6      0x931 /opt/intelFPGA/20.1.1/nios2eds/bin/gnu/H-x86_64-pc-linux-gnu/bin/../lib/gcc/nios2-elf/10.1.1/../../../../../H-x86_64-pc-linux-gnu/nios2-elf/lib/mhw-mulx/libc.a(lib_a-impure.o)
 .debug_info    0x000000000000aad7       0x84 /opt/intelFPGA/20.1.1/nios2eds/bin/gnu/H-x86_64-pc-linux-gnu/bin/../lib/gcc/nios2-elf/10.1.1/../../../../../H-x86_64-pc-linux-gnu/nios2-elf/lib/mhw-mulx/libc.a(lib_a-int_errno.o)
 .debug_info    0x000000000000ab5b      0xc39 /opt/intelFPGA/20.1.1/nios2eds/bin/gnu/H-x86_64-pc-linux-gnu/bin/../lib/gcc/nios2-elf/10.1.1/../../../../../H-x86_64-pc-linux-gnu/nios2-elf/lib/mhw-mulx/libc.a(lib_a-localeconv.o)
 .debug_info    0x000000000000b794      0xe0b /opt/intelFPGA/20.1.1/nios2eds/bin/gnu/H-x86_64-pc-linux-gnu/bin/../lib/gcc/nios2-elf/10.1.1/../../../../../H-x86_64-pc-linux-gnu/nios2-elf/lib/mhw-mulx/libc.a(lib_a-makebuf.o)
 .debug_info    0x000000000000c59f      0xe9a /opt/intelFPGA/20.1.1/nios2eds/bin/gnu/H-x86_64-pc-linux-gnu/bin/../lib/gcc/nios2-elf/10.1.1/../../../../../H-x86_64-pc-linux-gnu/nios2-elf/lib/mhw-mulx/libc.a(lib_a-mallocr.o)
 .debug_info    0x000000000000d439      0x155 /opt/intelFPGA/20.1.1/nios2eds/bin/gnu/H-x86_64-pc-linux-gnu/bin/../lib/gcc/nios2-elf/10.1.1/../../../../../H-x86_64-pc-linux-gnu/nios2-elf/lib/mhw-mulx/libc.a(lib_a-memchr.o)
 .debug_info    0x000000000000d58e      0x13d /opt/intelFPGA/20.1.1/nios2eds/bin/gnu/H-x86_64-pc-linux-gnu/bin/../lib/gcc/nios2-elf/10.1.1/../../../../../H-x86_64-pc-linux-gnu/nios2-elf/lib/mhw-mulx/libc.a(lib_a-memset.o)
 .debug_info    0x000000000000d6cb     0x2139 /opt/intelFPGA/20.1.1/nios2eds/bin/gnu/H-x86_64-pc-linux-gnu/bin/../lib/gcc/nios2-elf/10.1.1/../../../../../H-x86_64-pc-linux-gnu/nios2-elf/lib/mhw-mulx/libc.a(lib_a-mprec.o)
 .debug_info    0x000000000000f804      0x994 /opt/intelFPGA/20.1.1/nios2eds/bin/gnu/H-x86_64-pc-linux-gnu/bin/../lib/gcc/nios2-elf/10.1.1/../../../../../H-x86_64-pc-linux-gnu/nios2-elf/lib/mhw-mulx/libc.a(lib_a-sbrkr.o)
 .debug_info    0x0000000000010198      0xc23 /opt/intelFPGA/20.1.1/nios2eds/bin/gnu/H-x86_64-pc-linux-gnu/bin/../lib/gcc/nios2-elf/10.1.1/../../../../../H-x86_64-pc-linux-gnu/nios2-elf/lib/mhw-mulx/libc.a(lib_a-stdio.o)
 .debug_info    0x0000000000010dbb       0xee /opt/intelFPGA/20.1.1/nios2eds/bin/gnu/H-x86_64-pc-linux-gnu/bin/../lib/gcc/nios2-elf/10.1.1/../../../../../H-x86_64-pc-linux-gnu/nios2-elf/lib/mhw-mulx/libc.a(lib_a-strlen.o)
 .debug_info    0x0000000000010ea9     0x1a05 /opt/intelFPGA/20.1.1/nios2eds/bin/gnu/H-x86_64-pc-linux-gnu/bin/../lib/gcc/nios2-elf/10.1.1/../../../../../H-x86_64-pc-linux-gnu/nios2-elf/lib/mhw-mulx/libc.a(lib_a-vfiprintf.o)
 .debug_info    0x00000000000128ae      0x9c6 /opt/intelFPGA/20.1.1/nios2eds/bin/gnu/H-x86_64-pc-linux-gnu/bin/../lib/gcc/nios2-elf/10.1.1/../../../../../H-x86_64-pc-linux-gnu/nios2-elf/lib/mhw-mulx/libc.a(lib_a-writer.o)
 .debug_info    0x0000000000013274      0x971 /opt/intelFPGA/20.1.1/nios2eds/bin/gnu/H-x86_64-pc-linux-gnu/bin/../lib/gcc/nios2-elf/10.1.1/../../../../../H-x86_64-pc-linux-gnu/nios2-elf/lib/mhw-mulx/libc.a(closer.o)
 .debug_info    0x0000000000013be5      0xa1e /opt/intelFPGA/20.1.1/nios2eds/bin/gnu/H-x86_64-pc-linux-gnu/bin/../lib/gcc/nios2-elf/10.1.1/../../../../../H-x86_64-pc-linux-gnu/nios2-elf/lib/mhw-mulx/libc.a(lib_a-assert.o)
 .debug_info    0x0000000000014603      0xa86 /opt/intelFPGA/20.1.1/nios2eds/bin/gnu/H-x86_64-pc-linux-gnu/bin/../lib/gcc/nios2-elf/10.1.1/../../../../../H-x86_64-pc-linux-gnu/nios2-elf/lib/mhw-mulx/libc.a(lib_a-callocr.o)
 .debug_info    0x0000000000015089      0xb4b /opt/intelFPGA/20.1.1/nios2eds/bin/gnu/H-x86_64-pc-linux-gnu/bin/../lib/gcc/nios2-elf/10.1.1/../../../../../H-x86_64-pc-linux-gnu/nios2-elf/lib/mhw-mulx/libc.a(lib_a-fclose.o)
 .debug_info    0x0000000000015bd4      0xa69 /opt/intelFPGA/20.1.1/nios2eds/bin/gnu/H-x86_64-pc-linux-gnu/bin/../lib/gcc/nios2-elf/10.1.1/../../../../../H-x86_64-pc-linux-gnu/nios2-elf/lib/mhw-mulx/libc.a(lib_a-fiprintf.o)
 .debug_info    0x000000000001663d      0xbb1 /opt/intelFPGA/20.1.1/nios2eds/bin/gnu/H-x86_64-pc-linux-gnu/bin/../lib/gcc/nios2-elf/10.1.1/../../../../../H-x86_64-pc-linux-gnu/nios2-elf/lib/mhw-mulx/libc.a(lib_a-fputwc.o)
 .debug_info    0x00000000000171ee      0xb8a /opt/intelFPGA/20.1.1/nios2eds/bin/gnu/H-x86_64-pc-linux-gnu/bin/../lib/gcc/nios2-elf/10.1.1/../../../../../H-x86_64-pc-linux-gnu/nios2-elf/lib/mhw-mulx/libc.a(lib_a-fstatr.o)
 .debug_info    0x0000000000017d78      0xca0 /opt/intelFPGA/20.1.1/nios2eds/bin/gnu/H-x86_64-pc-linux-gnu/bin/../lib/gcc/nios2-elf/10.1.1/../../../../../H-x86_64-pc-linux-gnu/nios2-elf/lib/mhw-mulx/libc.a(lib_a-fvwrite.o)
 .debug_info    0x0000000000018a18      0x971 /opt/intelFPGA/20.1.1/nios2eds/bin/gnu/H-x86_64-pc-linux-gnu/bin/../lib/gcc/nios2-elf/10.1.1/../../../../../H-x86_64-pc-linux-gnu/nios2-elf/lib/mhw-mulx/libc.a(lib_a-isattyr.o)
 .debug_info    0x0000000000019389      0xd9f /opt/intelFPGA/20.1.1/nios2eds/bin/gnu/H-x86_64-pc-linux-gnu/bin/../lib/gcc/nios2-elf/10.1.1/../../../../../H-x86_64-pc-linux-gnu/nios2-elf/lib/mhw-mulx/libc.a(lib_a-locale.o)
 .debug_info    0x000000000001a128      0x9a7 /opt/intelFPGA/20.1.1/nios2eds/bin/gnu/H-x86_64-pc-linux-gnu/bin/../lib/gcc/nios2-elf/10.1.1/../../../../../H-x86_64-pc-linux-gnu/nios2-elf/lib/mhw-mulx/libc.a(lib_a-lseekr.o)
 .debug_info    0x000000000001aacf      0xcc5 /opt/intelFPGA/20.1.1/nios2eds/bin/gnu/H-x86_64-pc-linux-gnu/bin/../lib/gcc/nios2-elf/10.1.1/../../../../../H-x86_64-pc-linux-gnu/nios2-elf/lib/mhw-mulx/libc.a(lib_a-mbtowc_r.o)
 .debug_info    0x000000000001b794      0x158 /opt/intelFPGA/20.1.1/nios2eds/bin/gnu/H-x86_64-pc-linux-gnu/bin/../lib/gcc/nios2-elf/10.1.1/../../../../../H-x86_64-pc-linux-gnu/nios2-elf/lib/mhw-mulx/libc.a(lib_a-memmove.o)
 .debug_info    0x000000000001b8ec      0x9bf /opt/intelFPGA/20.1.1/nios2eds/bin/gnu/H-x86_64-pc-linux-gnu/bin/../lib/gcc/nios2-elf/10.1.1/../../../../../H-x86_64-pc-linux-gnu/nios2-elf/lib/mhw-mulx/libc.a(lib_a-readr.o)
 .debug_info    0x000000000001c2ab      0xd8d /opt/intelFPGA/20.1.1/nios2eds/bin/gnu/H-x86_64-pc-linux-gnu/bin/../lib/gcc/nios2-elf/10.1.1/../../../../../H-x86_64-pc-linux-gnu/nios2-elf/lib/mhw-mulx/libc.a(lib_a-reallocr.o)
 .debug_info    0x000000000001d038       0xf2 /opt/intelFPGA/20.1.1/nios2eds/bin/gnu/H-x86_64-pc-linux-gnu/bin/../lib/gcc/nios2-elf/10.1.1/../../../../../H-x86_64-pc-linux-gnu/nios2-elf/lib/mhw-mulx/libc.a(lib_a-strcmp.o)
 .debug_info    0x000000000001d12a      0x9dc /opt/intelFPGA/20.1.1/nios2eds/bin/gnu/H-x86_64-pc-linux-gnu/bin/../lib/gcc/nios2-elf/10.1.1/../../../../../H-x86_64-pc-linux-gnu/nios2-elf/lib/mhw-mulx/libc.a(lib_a-vfiprintfr_1.o)
 .debug_info    0x000000000001db06      0xa66 /opt/intelFPGA/20.1.1/nios2eds/bin/gnu/H-x86_64-pc-linux-gnu/bin/../lib/gcc/nios2-elf/10.1.1/../../../../../H-x86_64-pc-linux-gnu/nios2-elf/lib/mhw-mulx/libc.a(lib_a-wbuf.o)
 .debug_info    0x000000000001e56c      0xd46 /opt/intelFPGA/20.1.1/nios2eds/bin/gnu/H-x86_64-pc-linux-gnu/bin/../lib/gcc/nios2-elf/10.1.1/../../../../../H-x86_64-pc-linux-gnu/nios2-elf/lib/mhw-mulx/libc.a(lib_a-wcrtomb.o)
 .debug_info    0x000000000001f2b2      0xc81 /opt/intelFPGA/20.1.1/nios2eds/bin/gnu/H-x86_64-pc-linux-gnu/bin/../lib/gcc/nios2-elf/10.1.1/../../../../../H-x86_64-pc-linux-gnu/nios2-elf/lib/mhw-mulx/libc.a(lib_a-wctomb_r.o)
 .debug_info    0x000000000001ff33       0xcb /opt/intelFPGA/20.1.1/nios2eds/bin/gnu/H-x86_64-pc-linux-gnu/bin/../lib/gcc/nios2-elf/10.1.1/../../../../../H-x86_64-pc-linux-gnu/nios2-elf/lib/mhw-mulx/libc.a(lib_a-abort.o)
 .debug_info    0x000000000001fffe       0xec /opt/intelFPGA/20.1.1/nios2eds/bin/gnu/H-x86_64-pc-linux-gnu/bin/../lib/gcc/nios2-elf/10.1.1/../../../../../H-x86_64-pc-linux-gnu/nios2-elf/lib/mhw-mulx/libc.a(lib_a-ctype_.o)
 .debug_info    0x00000000000200ea      0xfd7 /opt/intelFPGA/20.1.1/nios2eds/bin/gnu/H-x86_64-pc-linux-gnu/bin/../lib/gcc/nios2-elf/10.1.1/../../../../../H-x86_64-pc-linux-gnu/nios2-elf/lib/mhw-mulx/libc.a(lib_a-signal.o)
 .debug_info    0x00000000000210c1      0x9dd /opt/intelFPGA/20.1.1/nios2eds/bin/gnu/H-x86_64-pc-linux-gnu/bin/../lib/gcc/nios2-elf/10.1.1/../../../../../H-x86_64-pc-linux-gnu/nios2-elf/lib/mhw-mulx/libc.a(lib_a-signalr.o)
 .debug_info    0x0000000000021a9e      0x916 /opt/intelFPGA/20.1.1/nios2eds/bin/gnu/H-x86_64-pc-linux-gnu/bin/../lib/gcc/nios2-elf/10.1.1/mhw-mulx/libgcc.a(_udivdi3.o)
 .debug_info    0x00000000000223b4      0x98e /opt/intelFPGA/20.1.1/nios2eds/bin/gnu/H-x86_64-pc-linux-gnu/bin/../lib/gcc/nios2-elf/10.1.1/mhw-mulx/libgcc.a(_umoddi3.o)
 .debug_info    0x0000000000022d42      0x368 /opt/intelFPGA/20.1.1/nios2eds/bin/gnu/H-x86_64-pc-linux-gnu/bin/../lib/gcc/nios2-elf/10.1.1/mhw-mulx/libgcc.a(lib2-divmod.o)
 .debug_info    0x00000000000230aa      0x614 /opt/intelFPGA/20.1.1/nios2eds/bin/gnu/H-x86_64-pc-linux-gnu/bin/../lib/gcc/nios2-elf/10.1.1/mhw-mulx/libgcc.a(adddf3.o)
 .debug_info    0x00000000000236be      0x87b /opt/intelFPGA/20.1.1/nios2eds/bin/gnu/H-x86_64-pc-linux-gnu/bin/../lib/gcc/nios2-elf/10.1.1/mhw-mulx/libgcc.a(divdf3.o)
 .debug_info    0x0000000000023f39      0x273 /opt/intelFPGA/20.1.1/nios2eds/bin/gnu/H-x86_64-pc-linux-gnu/bin/../lib/gcc/nios2-elf/10.1.1/mhw-mulx/libgcc.a(eqdf2.o)
 .debug_info    0x00000000000241ac      0x274 /opt/intelFPGA/20.1.1/nios2eds/bin/gnu/H-x86_64-pc-linux-gnu/bin/../lib/gcc/nios2-elf/10.1.1/mhw-mulx/libgcc.a(gedf2.o)
 .debug_info    0x0000000000024420      0x274 /opt/intelFPGA/20.1.1/nios2eds/bin/gnu/H-x86_64-pc-linux-gnu/bin/../lib/gcc/nios2-elf/10.1.1/mhw-mulx/libgcc.a(ledf2.o)
 .debug_info    0x0000000000024694      0x841 /opt/intelFPGA/20.1.1/nios2eds/bin/gnu/H-x86_64-pc-linux-gnu/bin/../lib/gcc/nios2-elf/10.1.1/mhw-mulx/libgcc.a(muldf3.o)
 .debug_info    0x0000000000024ed5      0x614 /opt/intelFPGA/20.1.1/nios2eds/bin/gnu/H-x86_64-pc-linux-gnu/bin/../lib/gcc/nios2-elf/10.1.1/mhw-mulx/libgcc.a(subdf3.o)
 .debug_info    0x00000000000254e9      0x24b /opt/intelFPGA/20.1.1/nios2eds/bin/gnu/H-x86_64-pc-linux-gnu/bin/../lib/gcc/nios2-elf/10.1.1/mhw-mulx/libgcc.a(unorddf2.o)
 .debug_info    0x0000000000025734      0x1f7 /opt/intelFPGA/20.1.1/nios2eds/bin/gnu/H-x86_64-pc-linux-gnu/bin/../lib/gcc/nios2-elf/10.1.1/mhw-mulx/libgcc.a(fixdfsi.o)
 .debug_info    0x000000000002592b      0x2bf /opt/intelFPGA/20.1.1/nios2eds/bin/gnu/H-x86_64-pc-linux-gnu/bin/../lib/gcc/nios2-elf/10.1.1/mhw-mulx/libgcc.a(floatsidf.o)
 .debug_info    0x0000000000025bea      0x2b2 /opt/intelFPGA/20.1.1/nios2eds/bin/gnu/H-x86_64-pc-linux-gnu/bin/../lib/gcc/nios2-elf/10.1.1/mhw-mulx/libgcc.a(floatunsidf.o)
 .debug_info    0x0000000000025e9c       0xc2 /opt/intelFPGA/20.1.1/nios2eds/bin/gnu/H-x86_64-pc-linux-gnu/bin/../lib/gcc/nios2-elf/10.1.1/mhw-mulx/libgcc.a(_clz.o)
 .debug_info    0x0000000000025f5e      0x133 /opt/intelFPGA/20.1.1/nios2eds/bin/gnu/H-x86_64-pc-linux-gnu/bin/../lib/gcc/nios2-elf/10.1.1/mhw-mulx/libgcc.a(_clzsi2.o)
 .debug_info    0x0000000000026091      0x33a ../ucosii_binary_game_hal_part1_bsp//libucosii_bsp.a(alt_close.o)
 .debug_info    0x00000000000263cb      0x652 ../ucosii_binary_game_hal_part1_bsp//libucosii_bsp.a(alt_dev.o)
 .debug_info    0x0000000000026a1d       0x9d ../ucosii_binary_game_hal_part1_bsp//libucosii_bsp.a(alt_errno.o)
 .debug_info    0x0000000000026aba      0x108 ../ucosii_binary_game_hal_part1_bsp//libucosii_bsp.a(alt_exit.o)
 .debug_info    0x0000000000026bc2      0x538 ../ucosii_binary_game_hal_part1_bsp//libucosii_bsp.a(alt_fstat.o)
 .debug_info    0x00000000000270fa       0x43 ../ucosii_binary_game_hal_part1_bsp//libucosii_bsp.a(alt_getpid.o)
 .debug_info    0x000000000002713d      0x202 ../ucosii_binary_game_hal_part1_bsp//libucosii_bsp.a(alt_gettod.o)
 .debug_info    0x000000000002733f      0x53b ../ucosii_binary_game_hal_part1_bsp//libucosii_bsp.a(alt_isatty.o)
 .debug_info    0x000000000002787a      0x101 ../ucosii_binary_game_hal_part1_bsp//libucosii_bsp.a(alt_kill.o)
 .debug_info    0x000000000002797b      0x14d ../ucosii_binary_game_hal_part1_bsp//libucosii_bsp.a(alt_load.o)
 .debug_info    0x0000000000027ac8      0x37b ../ucosii_binary_game_hal_part1_bsp//libucosii_bsp.a(alt_lseek.o)
 .debug_info    0x0000000000027e43      0x211 ../ucosii_binary_game_hal_part1_bsp//libucosii_bsp.a(alt_main.o)
 .debug_info    0x0000000000028054      0x563 ../ucosii_binary_game_hal_part1_bsp//libucosii_bsp.a(alt_read.o)
 .debug_info    0x00000000000285b7      0x2d5 ../ucosii_binary_game_hal_part1_bsp//libucosii_bsp.a(alt_release_fd.o)
 .debug_info    0x000000000002888c      0x19c ../ucosii_binary_game_hal_part1_bsp//libucosii_bsp.a(alt_sbrk.o)
 .debug_info    0x0000000000028a28      0x2cb ../ucosii_binary_game_hal_part1_bsp//libucosii_bsp.a(alt_tick.o)
 .debug_info    0x0000000000028cf3      0x56a ../ucosii_binary_game_hal_part1_bsp//libucosii_bsp.a(alt_write.o)
 .debug_info    0x000000000002925d      0xd00 ../ucosii_binary_game_hal_part1_bsp//libucosii_bsp.a(alt_env_lock.o)
 .debug_info    0x0000000000029f5d      0xe3e ../ucosii_binary_game_hal_part1_bsp//libucosii_bsp.a(alt_malloc_lock.o)
 .debug_info    0x000000000002ad9b     0x1614 ../ucosii_binary_game_hal_part1_bsp//libucosii_bsp.a(os_core.o)
 .debug_info    0x000000000002c3af      0x4ac ../ucosii_binary_game_hal_part1_bsp//libucosii_bsp.a(os_dbg.o)
 .debug_info    0x000000000002c85b      0xfc3 ../ucosii_binary_game_hal_part1_bsp//libucosii_bsp.a(os_flag.o)
 .debug_info    0x000000000002d81e      0x65d ../ucosii_binary_game_hal_part1_bsp//libucosii_bsp.a(os_mem.o)
 .debug_info    0x000000000002de7b      0xacd ../ucosii_binary_game_hal_part1_bsp//libucosii_bsp.a(os_mutex.o)
 .debug_info    0x000000000002e948      0xdae ../ucosii_binary_game_hal_part1_bsp//libucosii_bsp.a(os_q.o)
 .debug_info    0x000000000002f6f6      0x9fd ../ucosii_binary_game_hal_part1_bsp//libucosii_bsp.a(os_sem.o)
 .debug_info    0x00000000000300f3     0x1127 ../ucosii_binary_game_hal_part1_bsp//libucosii_bsp.a(os_task.o)
 .debug_info    0x000000000003121a      0x6ef ../ucosii_binary_game_hal_part1_bsp//libucosii_bsp.a(os_time.o)
 .debug_info    0x0000000000031909      0xb7c ../ucosii_binary_game_hal_part1_bsp//libucosii_bsp.a(alt_sys_init.o)
 .debug_info    0x0000000000032485      0x687 ../ucosii_binary_game_hal_part1_bsp//libucosii_bsp.a(altera_avalon_jtag_uart_fd.o)
 .debug_info    0x0000000000032b0c      0x6d0 ../ucosii_binary_game_hal_part1_bsp//libucosii_bsp.a(altera_avalon_jtag_uart_init.o)
 .debug_info    0x00000000000331dc      0x3bd ../ucosii_binary_game_hal_part1_bsp//libucosii_bsp.a(altera_avalon_jtag_uart_ioctl.o)
 .debug_info    0x0000000000033599      0x57f ../ucosii_binary_game_hal_part1_bsp//libucosii_bsp.a(altera_avalon_jtag_uart_read.o)
 .debug_info    0x0000000000033b18      0x57d ../ucosii_binary_game_hal_part1_bsp//libucosii_bsp.a(altera_avalon_jtag_uart_write.o)
 .debug_info    0x0000000000034095      0x1e3 ../ucosii_binary_game_hal_part1_bsp//libucosii_bsp.a(altera_avalon_timer_sc.o)
 .debug_info    0x0000000000034278      0x628 ../ucosii_binary_game_hal_part1_bsp//libucosii_bsp.a(altera_up_avalon_character_lcd.o)
 .debug_info    0x00000000000348a0      0x5ae ../ucosii_binary_game_hal_part1_bsp//libucosii_bsp.a(altera_up_avalon_irda.o)
 .debug_info    0x0000000000034e4e      0x840 ../ucosii_binary_game_hal_part1_bsp//libucosii_bsp.a(altera_up_avalon_ps2.o)
 .debug_info    0x000000000003568e      0x5ae ../ucosii_binary_game_hal_part1_bsp//libucosii_bsp.a(altera_up_avalon_rs232.o)
 .debug_info    0x0000000000035c3c      0x2dd ../ucosii_binary_game_hal_part1_bsp//libucosii_bsp.a(alt_alarm_start.o)
 .debug_info    0x0000000000035f19       0x8c ../ucosii_binary_game_hal_part1_bsp//libucosii_bsp.a(alt_dcache_flush_all.o)
 .debug_info    0x0000000000035fa5      0x1b0 ../ucosii_binary_game_hal_part1_bsp//libucosii_bsp.a(alt_dev_llist_insert.o)
 .debug_info    0x0000000000036155       0x88 ../ucosii_binary_game_hal_part1_bsp//libucosii_bsp.a(alt_do_ctors.o)
 .debug_info    0x00000000000361dd       0x88 ../ucosii_binary_game_hal_part1_bsp//libucosii_bsp.a(alt_do_dtors.o)
 .debug_info    0x0000000000036265      0x2fc ../ucosii_binary_game_hal_part1_bsp//libucosii_bsp.a(alt_find_dev.o)
 .debug_info    0x0000000000036561       0x8c ../ucosii_binary_game_hal_part1_bsp//libucosii_bsp.a(alt_icache_flush_all.o)
 .debug_info    0x00000000000365ed      0x554 ../ucosii_binary_game_hal_part1_bsp//libucosii_bsp.a(alt_io_redirect.o)
 .debug_info    0x0000000000036b41      0x305 ../ucosii_binary_game_hal_part1_bsp//libucosii_bsp.a(alt_irq_register.o)
 .debug_info    0x0000000000036e46       0x8b ../ucosii_binary_game_hal_part1_bsp//libucosii_bsp.a(alt_irq_vars.o)
 .debug_info    0x0000000000036ed1      0x3eb ../ucosii_binary_game_hal_part1_bsp//libucosii_bsp.a(alt_open.o)
 .debug_info    0x00000000000372bc       0x8c ../ucosii_binary_game_hal_part1_bsp//libucosii_bsp.a(altera_nios2_gen2_irq.o)
 .debug_info    0x0000000000037348       0x26 ../ucosii_binary_game_hal_part1_bsp//libucosii_bsp.a(os_cpu_a.o)
 .debug_info    0x000000000003736e      0xd96 ../ucosii_binary_game_hal_part1_bsp//libucosii_bsp.a(os_cpu_c.o)
 .debug_info    0x0000000000038104      0x2f9 ../ucosii_binary_game_hal_part1_bsp//libucosii_bsp.a(alt_find_file.o)
 .debug_info    0x00000000000383fd      0x432 ../ucosii_binary_game_hal_part1_bsp//libucosii_bsp.a(alt_get_fd.o)
 .debug_info    0x000000000003882f       0xdb ../ucosii_binary_game_hal_part1_bsp//libucosii_bsp.a(alt_icache_flush.o)
 .debug_info    0x000000000003890a       0x22 ../ucosii_binary_game_hal_part1_bsp//libucosii_bsp.a(alt_irq_entry.o)
 .debug_info    0x000000000003892c      0x188 ../ucosii_binary_game_hal_part1_bsp//libucosii_bsp.a(alt_irq_handler.o)
 .debug_info    0x0000000000038ab4       0x22 ../ucosii_binary_game_hal_part1_bsp//libucosii_bsp.a(alt_exception_entry.o)
 .debug_info    0x0000000000038ad6      0x1f1 ../ucosii_binary_game_hal_part1_bsp//libucosii_bsp.a(alt_instruction_exception_entry.o)
 .debug_info    0x0000000000038cc7      0x100 /opt/intelFPGA/20.1.1/nios2eds/bin/gnu/H-x86_64-pc-linux-gnu/bin/../lib/gcc/nios2-elf/10.1.1/../../../../../H-x86_64-pc-linux-gnu/nios2-elf/lib/mhw-mulx/libc.a(lib_a-atexit.o)
 .debug_info    0x0000000000038dc7      0x970 /opt/intelFPGA/20.1.1/nios2eds/bin/gnu/H-x86_64-pc-linux-gnu/bin/../lib/gcc/nios2-elf/10.1.1/../../../../../H-x86_64-pc-linux-gnu/nios2-elf/lib/mhw-mulx/libc.a(lib_a-exit.o)
 .debug_info    0x0000000000039737      0x138 /opt/intelFPGA/20.1.1/nios2eds/bin/gnu/H-x86_64-pc-linux-gnu/bin/../lib/gcc/nios2-elf/10.1.1/../../../../../H-x86_64-pc-linux-gnu/nios2-elf/lib/mhw-mulx/libc.a(lib_a-memcmp.o)
 .debug_info    0x000000000003986f      0x9b1 /opt/intelFPGA/20.1.1/nios2eds/bin/gnu/H-x86_64-pc-linux-gnu/bin/../lib/gcc/nios2-elf/10.1.1/../../../../../H-x86_64-pc-linux-gnu/nios2-elf/lib/mhw-mulx/libc.a(lib_a-__atexit.o)
 .debug_info    0x000000000003a220      0x9f9 /opt/intelFPGA/20.1.1/nios2eds/bin/gnu/H-x86_64-pc-linux-gnu/bin/../lib/gcc/nios2-elf/10.1.1/../../../../../H-x86_64-pc-linux-gnu/nios2-elf/lib/mhw-mulx/libc.a(lib_a-__call_atexit.o)

.debug_abbrev   0x0000000000000000     0xdcc4
 *(.debug_abbrev)
 .debug_abbrev  0x0000000000000000       0x12 ../ucosii_binary_game_hal_part1_bsp//obj/HAL/src/crt0.o
 .debug_abbrev  0x0000000000000012      0x1bd obj/default/hello_ucosii.o
 .debug_abbrev  0x00000000000001cf       0xb6 /opt/intelFPGA/20.1.1/nios2eds/bin/gnu/H-x86_64-pc-linux-gnu/bin/../lib/gcc/nios2-elf/10.1.1/../../../../../H-x86_64-pc-linux-gnu/nios2-elf/lib/mhw-mulx/libc.a(lib_a-memcpy.o)
 .debug_abbrev  0x0000000000000285      0x265 /opt/intelFPGA/20.1.1/nios2eds/bin/gnu/H-x86_64-pc-linux-gnu/bin/../lib/gcc/nios2-elf/10.1.1/../../../../../H-x86_64-pc-linux-gnu/nios2-elf/lib/mhw-mulx/libc.a(lib_a-printf.o)
 .debug_abbrev  0x00000000000004ea      0x21f /opt/intelFPGA/20.1.1/nios2eds/bin/gnu/H-x86_64-pc-linux-gnu/bin/../lib/gcc/nios2-elf/10.1.1/../../../../../H-x86_64-pc-linux-gnu/nios2-elf/lib/mhw-mulx/libc.a(lib_a-rand.o)
 .debug_abbrev  0x0000000000000709      0x220 /opt/intelFPGA/20.1.1/nios2eds/bin/gnu/H-x86_64-pc-linux-gnu/bin/../lib/gcc/nios2-elf/10.1.1/../../../../../H-x86_64-pc-linux-gnu/nios2-elf/lib/mhw-mulx/libc.a(lib_a-time.o)
 .debug_abbrev  0x0000000000000929      0x42f /opt/intelFPGA/20.1.1/nios2eds/bin/gnu/H-x86_64-pc-linux-gnu/bin/../lib/gcc/nios2-elf/10.1.1/../../../../../H-x86_64-pc-linux-gnu/nios2-elf/lib/mhw-mulx/libc.a(lib_a-vfprintf.o)
 .debug_abbrev  0x0000000000000d58      0x257 /opt/intelFPGA/20.1.1/nios2eds/bin/gnu/H-x86_64-pc-linux-gnu/bin/../lib/gcc/nios2-elf/10.1.1/../../../../../H-x86_64-pc-linux-gnu/nios2-elf/lib/mhw-mulx/libc.a(lib_a-wsetup.o)
 .debug_abbrev  0x0000000000000faf      0x345 /opt/intelFPGA/20.1.1/nios2eds/bin/gnu/H-x86_64-pc-linux-gnu/bin/../lib/gcc/nios2-elf/10.1.1/../../../../../H-x86_64-pc-linux-gnu/nios2-elf/lib/mhw-mulx/libc.a(lib_a-dtoa.o)
 .debug_abbrev  0x00000000000012f4      0x344 /opt/intelFPGA/20.1.1/nios2eds/bin/gnu/H-x86_64-pc-linux-gnu/bin/../lib/gcc/nios2-elf/10.1.1/../../../../../H-x86_64-pc-linux-gnu/nios2-elf/lib/mhw-mulx/libc.a(lib_a-fflush.o)
 .debug_abbrev  0x0000000000001638      0x44c /opt/intelFPGA/20.1.1/nios2eds/bin/gnu/H-x86_64-pc-linux-gnu/bin/../lib/gcc/nios2-elf/10.1.1/../../../../../H-x86_64-pc-linux-gnu/nios2-elf/lib/mhw-mulx/libc.a(lib_a-findfp.o)
 .debug_abbrev  0x0000000000001a84      0x2b1 /opt/intelFPGA/20.1.1/nios2eds/bin/gnu/H-x86_64-pc-linux-gnu/bin/../lib/gcc/nios2-elf/10.1.1/../../../../../H-x86_64-pc-linux-gnu/nios2-elf/lib/mhw-mulx/libc.a(lib_a-freer.o)
 .debug_abbrev  0x0000000000001d35      0x20f /opt/intelFPGA/20.1.1/nios2eds/bin/gnu/H-x86_64-pc-linux-gnu/bin/../lib/gcc/nios2-elf/10.1.1/../../../../../H-x86_64-pc-linux-gnu/nios2-elf/lib/mhw-mulx/libc.a(lib_a-fwalk.o)
 .debug_abbrev  0x0000000000001f44      0x237 /opt/intelFPGA/20.1.1/nios2eds/bin/gnu/H-x86_64-pc-linux-gnu/bin/../lib/gcc/nios2-elf/10.1.1/../../../../../H-x86_64-pc-linux-gnu/nios2-elf/lib/mhw-mulx/libc.a(lib_a-gettimeofdayr.o)
 .debug_abbrev  0x000000000000217b      0x1c9 /opt/intelFPGA/20.1.1/nios2eds/bin/gnu/H-x86_64-pc-linux-gnu/bin/../lib/gcc/nios2-elf/10.1.1/../../../../../H-x86_64-pc-linux-gnu/nios2-elf/lib/mhw-mulx/libc.a(lib_a-impure.o)
 .debug_abbrev  0x0000000000002344       0x39 /opt/intelFPGA/20.1.1/nios2eds/bin/gnu/H-x86_64-pc-linux-gnu/bin/../lib/gcc/nios2-elf/10.1.1/../../../../../H-x86_64-pc-linux-gnu/nios2-elf/lib/mhw-mulx/libc.a(lib_a-int_errno.o)
 .debug_abbrev  0x000000000000237d      0x275 /opt/intelFPGA/20.1.1/nios2eds/bin/gnu/H-x86_64-pc-linux-gnu/bin/../lib/gcc/nios2-elf/10.1.1/../../../../../H-x86_64-pc-linux-gnu/nios2-elf/lib/mhw-mulx/libc.a(lib_a-localeconv.o)
 .debug_abbrev  0x00000000000025f2      0x308 /opt/intelFPGA/20.1.1/nios2eds/bin/gnu/H-x86_64-pc-linux-gnu/bin/../lib/gcc/nios2-elf/10.1.1/../../../../../H-x86_64-pc-linux-gnu/nios2-elf/lib/mhw-mulx/libc.a(lib_a-makebuf.o)
 .debug_abbrev  0x00000000000028fa      0x2f6 /opt/intelFPGA/20.1.1/nios2eds/bin/gnu/H-x86_64-pc-linux-gnu/bin/../lib/gcc/nios2-elf/10.1.1/../../../../../H-x86_64-pc-linux-gnu/nios2-elf/lib/mhw-mulx/libc.a(lib_a-mallocr.o)
 .debug_abbrev  0x0000000000002bf0       0xc3 /opt/intelFPGA/20.1.1/nios2eds/bin/gnu/H-x86_64-pc-linux-gnu/bin/../lib/gcc/nios2-elf/10.1.1/../../../../../H-x86_64-pc-linux-gnu/nios2-elf/lib/mhw-mulx/libc.a(lib_a-memchr.o)
 .debug_abbrev  0x0000000000002cb3       0xb4 /opt/intelFPGA/20.1.1/nios2eds/bin/gnu/H-x86_64-pc-linux-gnu/bin/../lib/gcc/nios2-elf/10.1.1/../../../../../H-x86_64-pc-linux-gnu/nios2-elf/lib/mhw-mulx/libc.a(lib_a-memset.o)
 .debug_abbrev  0x0000000000002d67      0x4f8 /opt/intelFPGA/20.1.1/nios2eds/bin/gnu/H-x86_64-pc-linux-gnu/bin/../lib/gcc/nios2-elf/10.1.1/../../../../../H-x86_64-pc-linux-gnu/nios2-elf/lib/mhw-mulx/libc.a(lib_a-mprec.o)
 .debug_abbrev  0x000000000000325f      0x24e /opt/intelFPGA/20.1.1/nios2eds/bin/gnu/H-x86_64-pc-linux-gnu/bin/../lib/gcc/nios2-elf/10.1.1/../../../../../H-x86_64-pc-linux-gnu/nios2-elf/lib/mhw-mulx/libc.a(lib_a-sbrkr.o)
 .debug_abbrev  0x00000000000034ad      0x273 /opt/intelFPGA/20.1.1/nios2eds/bin/gnu/H-x86_64-pc-linux-gnu/bin/../lib/gcc/nios2-elf/10.1.1/../../../../../H-x86_64-pc-linux-gnu/nios2-elf/lib/mhw-mulx/libc.a(lib_a-stdio.o)
 .debug_abbrev  0x0000000000003720       0x8f /opt/intelFPGA/20.1.1/nios2eds/bin/gnu/H-x86_64-pc-linux-gnu/bin/../lib/gcc/nios2-elf/10.1.1/../../../../../H-x86_64-pc-linux-gnu/nios2-elf/lib/mhw-mulx/libc.a(lib_a-strlen.o)
 .debug_abbrev  0x00000000000037af      0x441 /opt/intelFPGA/20.1.1/nios2eds/bin/gnu/H-x86_64-pc-linux-gnu/bin/../lib/gcc/nios2-elf/10.1.1/../../../../../H-x86_64-pc-linux-gnu/nios2-elf/lib/mhw-mulx/libc.a(lib_a-vfiprintf.o)
 .debug_abbrev  0x0000000000003bf0      0x228 /opt/intelFPGA/20.1.1/nios2eds/bin/gnu/H-x86_64-pc-linux-gnu/bin/../lib/gcc/nios2-elf/10.1.1/../../../../../H-x86_64-pc-linux-gnu/nios2-elf/lib/mhw-mulx/libc.a(lib_a-writer.o)
 .debug_abbrev  0x0000000000003e18      0x223 /opt/intelFPGA/20.1.1/nios2eds/bin/gnu/H-x86_64-pc-linux-gnu/bin/../lib/gcc/nios2-elf/10.1.1/../../../../../H-x86_64-pc-linux-gnu/nios2-elf/lib/mhw-mulx/libc.a(closer.o)
 .debug_abbrev  0x000000000000403b      0x23b /opt/intelFPGA/20.1.1/nios2eds/bin/gnu/H-x86_64-pc-linux-gnu/bin/../lib/gcc/nios2-elf/10.1.1/../../../../../H-x86_64-pc-linux-gnu/nios2-elf/lib/mhw-mulx/libc.a(lib_a-assert.o)
 .debug_abbrev  0x0000000000004276      0x252 /opt/intelFPGA/20.1.1/nios2eds/bin/gnu/H-x86_64-pc-linux-gnu/bin/../lib/gcc/nios2-elf/10.1.1/../../../../../H-x86_64-pc-linux-gnu/nios2-elf/lib/mhw-mulx/libc.a(lib_a-callocr.o)
 .debug_abbrev  0x00000000000044c8      0x317 /opt/intelFPGA/20.1.1/nios2eds/bin/gnu/H-x86_64-pc-linux-gnu/bin/../lib/gcc/nios2-elf/10.1.1/../../../../../H-x86_64-pc-linux-gnu/nios2-elf/lib/mhw-mulx/libc.a(lib_a-fclose.o)
 .debug_abbrev  0x00000000000047df      0x231 /opt/intelFPGA/20.1.1/nios2eds/bin/gnu/H-x86_64-pc-linux-gnu/bin/../lib/gcc/nios2-elf/10.1.1/../../../../../H-x86_64-pc-linux-gnu/nios2-elf/lib/mhw-mulx/libc.a(lib_a-fiprintf.o)
 .debug_abbrev  0x0000000000004a10      0x2ff /opt/intelFPGA/20.1.1/nios2eds/bin/gnu/H-x86_64-pc-linux-gnu/bin/../lib/gcc/nios2-elf/10.1.1/../../../../../H-x86_64-pc-linux-gnu/nios2-elf/lib/mhw-mulx/libc.a(lib_a-fputwc.o)
 .debug_abbrev  0x0000000000004d0f      0x237 /opt/intelFPGA/20.1.1/nios2eds/bin/gnu/H-x86_64-pc-linux-gnu/bin/../lib/gcc/nios2-elf/10.1.1/../../../../../H-x86_64-pc-linux-gnu/nios2-elf/lib/mhw-mulx/libc.a(lib_a-fstatr.o)
 .debug_abbrev  0x0000000000004f46      0x295 /opt/intelFPGA/20.1.1/nios2eds/bin/gnu/H-x86_64-pc-linux-gnu/bin/../lib/gcc/nios2-elf/10.1.1/../../../../../H-x86_64-pc-linux-gnu/nios2-elf/lib/mhw-mulx/libc.a(lib_a-fvwrite.o)
 .debug_abbrev  0x00000000000051db      0x223 /opt/intelFPGA/20.1.1/nios2eds/bin/gnu/H-x86_64-pc-linux-gnu/bin/../lib/gcc/nios2-elf/10.1.1/../../../../../H-x86_64-pc-linux-gnu/nios2-elf/lib/mhw-mulx/libc.a(lib_a-isattyr.o)
 .debug_abbrev  0x00000000000053fe      0x2f7 /opt/intelFPGA/20.1.1/nios2eds/bin/gnu/H-x86_64-pc-linux-gnu/bin/../lib/gcc/nios2-elf/10.1.1/../../../../../H-x86_64-pc-linux-gnu/nios2-elf/lib/mhw-mulx/libc.a(lib_a-locale.o)
 .debug_abbrev  0x00000000000056f5      0x237 /opt/intelFPGA/20.1.1/nios2eds/bin/gnu/H-x86_64-pc-linux-gnu/bin/../lib/gcc/nios2-elf/10.1.1/../../../../../H-x86_64-pc-linux-gnu/nios2-elf/lib/mhw-mulx/libc.a(lib_a-lseekr.o)
 .debug_abbrev  0x000000000000592c      0x27a /opt/intelFPGA/20.1.1/nios2eds/bin/gnu/H-x86_64-pc-linux-gnu/bin/../lib/gcc/nios2-elf/10.1.1/../../../../../H-x86_64-pc-linux-gnu/nios2-elf/lib/mhw-mulx/libc.a(lib_a-mbtowc_r.o)
 .debug_abbrev  0x0000000000005ba6       0xaf /opt/intelFPGA/20.1.1/nios2eds/bin/gnu/H-x86_64-pc-linux-gnu/bin/../lib/gcc/nios2-elf/10.1.1/../../../../../H-x86_64-pc-linux-gnu/nios2-elf/lib/mhw-mulx/libc.a(lib_a-memmove.o)
 .debug_abbrev  0x0000000000005c55      0x223 /opt/intelFPGA/20.1.1/nios2eds/bin/gnu/H-x86_64-pc-linux-gnu/bin/../lib/gcc/nios2-elf/10.1.1/../../../../../H-x86_64-pc-linux-gnu/nios2-elf/lib/mhw-mulx/libc.a(lib_a-readr.o)
 .debug_abbrev  0x0000000000005e78      0x289 /opt/intelFPGA/20.1.1/nios2eds/bin/gnu/H-x86_64-pc-linux-gnu/bin/../lib/gcc/nios2-elf/10.1.1/../../../../../H-x86_64-pc-linux-gnu/nios2-elf/lib/mhw-mulx/libc.a(lib_a-reallocr.o)
 .debug_abbrev  0x0000000000006101       0x80 /opt/intelFPGA/20.1.1/nios2eds/bin/gnu/H-x86_64-pc-linux-gnu/bin/../lib/gcc/nios2-elf/10.1.1/../../../../../H-x86_64-pc-linux-gnu/nios2-elf/lib/mhw-mulx/libc.a(lib_a-strcmp.o)
 .debug_abbrev  0x0000000000006181      0x245 /opt/intelFPGA/20.1.1/nios2eds/bin/gnu/H-x86_64-pc-linux-gnu/bin/../lib/gcc/nios2-elf/10.1.1/../../../../../H-x86_64-pc-linux-gnu/nios2-elf/lib/mhw-mulx/libc.a(lib_a-vfiprintfr_1.o)
 .debug_abbrev  0x00000000000063c6      0x297 /opt/intelFPGA/20.1.1/nios2eds/bin/gnu/H-x86_64-pc-linux-gnu/bin/../lib/gcc/nios2-elf/10.1.1/../../../../../H-x86_64-pc-linux-gnu/nios2-elf/lib/mhw-mulx/libc.a(lib_a-wbuf.o)
 .debug_abbrev  0x000000000000665d      0x25f /opt/intelFPGA/20.1.1/nios2eds/bin/gnu/H-x86_64-pc-linux-gnu/bin/../lib/gcc/nios2-elf/10.1.1/../../../../../H-x86_64-pc-linux-gnu/nios2-elf/lib/mhw-mulx/libc.a(lib_a-wcrtomb.o)
 .debug_abbrev  0x00000000000068bc      0x262 /opt/intelFPGA/20.1.1/nios2eds/bin/gnu/H-x86_64-pc-linux-gnu/bin/../lib/gcc/nios2-elf/10.1.1/../../../../../H-x86_64-pc-linux-gnu/nios2-elf/lib/mhw-mulx/libc.a(lib_a-wctomb_r.o)
 .debug_abbrev  0x0000000000006b1e       0x80 /opt/intelFPGA/20.1.1/nios2eds/bin/gnu/H-x86_64-pc-linux-gnu/bin/../lib/gcc/nios2-elf/10.1.1/../../../../../H-x86_64-pc-linux-gnu/nios2-elf/lib/mhw-mulx/libc.a(lib_a-abort.o)
 .debug_abbrev  0x0000000000006b9e       0x73 /opt/intelFPGA/20.1.1/nios2eds/bin/gnu/H-x86_64-pc-linux-gnu/bin/../lib/gcc/nios2-elf/10.1.1/../../../../../H-x86_64-pc-linux-gnu/nios2-elf/lib/mhw-mulx/libc.a(lib_a-ctype_.o)
 .debug_abbrev  0x0000000000006c11      0x343 /opt/intelFPGA/20.1.1/nios2eds/bin/gnu/H-x86_64-pc-linux-gnu/bin/../lib/gcc/nios2-elf/10.1.1/../../../../../H-x86_64-pc-linux-gnu/nios2-elf/lib/mhw-mulx/libc.a(lib_a-signal.o)
 .debug_abbrev  0x0000000000006f54      0x240 /opt/intelFPGA/20.1.1/nios2eds/bin/gnu/H-x86_64-pc-linux-gnu/bin/../lib/gcc/nios2-elf/10.1.1/../../../../../H-x86_64-pc-linux-gnu/nios2-elf/lib/mhw-mulx/libc.a(lib_a-signalr.o)
 .debug_abbrev  0x0000000000007194      0x1b4 /opt/intelFPGA/20.1.1/nios2eds/bin/gnu/H-x86_64-pc-linux-gnu/bin/../lib/gcc/nios2-elf/10.1.1/mhw-mulx/libgcc.a(_udivdi3.o)
 .debug_abbrev  0x0000000000007348      0x1d7 /opt/intelFPGA/20.1.1/nios2eds/bin/gnu/H-x86_64-pc-linux-gnu/bin/../lib/gcc/nios2-elf/10.1.1/mhw-mulx/libgcc.a(_umoddi3.o)
 .debug_abbrev  0x000000000000751f      0x103 /opt/intelFPGA/20.1.1/nios2eds/bin/gnu/H-x86_64-pc-linux-gnu/bin/../lib/gcc/nios2-elf/10.1.1/mhw-mulx/libgcc.a(lib2-divmod.o)
 .debug_abbrev  0x0000000000007622      0x16b /opt/intelFPGA/20.1.1/nios2eds/bin/gnu/H-x86_64-pc-linux-gnu/bin/../lib/gcc/nios2-elf/10.1.1/mhw-mulx/libgcc.a(adddf3.o)
 .debug_abbrev  0x000000000000778d      0x16b /opt/intelFPGA/20.1.1/nios2eds/bin/gnu/H-x86_64-pc-linux-gnu/bin/../lib/gcc/nios2-elf/10.1.1/mhw-mulx/libgcc.a(divdf3.o)
 .debug_abbrev  0x00000000000078f8      0x12f /opt/intelFPGA/20.1.1/nios2eds/bin/gnu/H-x86_64-pc-linux-gnu/bin/../lib/gcc/nios2-elf/10.1.1/mhw-mulx/libgcc.a(eqdf2.o)
 .debug_abbrev  0x0000000000007a27      0x153 /opt/intelFPGA/20.1.1/nios2eds/bin/gnu/H-x86_64-pc-linux-gnu/bin/../lib/gcc/nios2-elf/10.1.1/mhw-mulx/libgcc.a(gedf2.o)
 .debug_abbrev  0x0000000000007b7a      0x153 /opt/intelFPGA/20.1.1/nios2eds/bin/gnu/H-x86_64-pc-linux-gnu/bin/../lib/gcc/nios2-elf/10.1.1/mhw-mulx/libgcc.a(ledf2.o)
 .debug_abbrev  0x0000000000007ccd      0x17d /opt/intelFPGA/20.1.1/nios2eds/bin/gnu/H-x86_64-pc-linux-gnu/bin/../lib/gcc/nios2-elf/10.1.1/mhw-mulx/libgcc.a(muldf3.o)
 .debug_abbrev  0x0000000000007e4a      0x16b /opt/intelFPGA/20.1.1/nios2eds/bin/gnu/H-x86_64-pc-linux-gnu/bin/../lib/gcc/nios2-elf/10.1.1/mhw-mulx/libgcc.a(subdf3.o)
 .debug_abbrev  0x0000000000007fb5      0x12f /opt/intelFPGA/20.1.1/nios2eds/bin/gnu/H-x86_64-pc-linux-gnu/bin/../lib/gcc/nios2-elf/10.1.1/mhw-mulx/libgcc.a(unorddf2.o)
 .debug_abbrev  0x00000000000080e4      0x145 /opt/intelFPGA/20.1.1/nios2eds/bin/gnu/H-x86_64-pc-linux-gnu/bin/../lib/gcc/nios2-elf/10.1.1/mhw-mulx/libgcc.a(fixdfsi.o)
 .debug_abbrev  0x0000000000008229      0x16d /opt/intelFPGA/20.1.1/nios2eds/bin/gnu/H-x86_64-pc-linux-gnu/bin/../lib/gcc/nios2-elf/10.1.1/mhw-mulx/libgcc.a(floatsidf.o)
 .debug_abbrev  0x0000000000008396      0x16d /opt/intelFPGA/20.1.1/nios2eds/bin/gnu/H-x86_64-pc-linux-gnu/bin/../lib/gcc/nios2-elf/10.1.1/mhw-mulx/libgcc.a(floatunsidf.o)
 .debug_abbrev  0x0000000000008503       0x70 /opt/intelFPGA/20.1.1/nios2eds/bin/gnu/H-x86_64-pc-linux-gnu/bin/../lib/gcc/nios2-elf/10.1.1/mhw-mulx/libgcc.a(_clz.o)
 .debug_abbrev  0x0000000000008573       0xbf /opt/intelFPGA/20.1.1/nios2eds/bin/gnu/H-x86_64-pc-linux-gnu/bin/../lib/gcc/nios2-elf/10.1.1/mhw-mulx/libgcc.a(_clzsi2.o)
 .debug_abbrev  0x0000000000008632      0x133 ../ucosii_binary_game_hal_part1_bsp//libucosii_bsp.a(alt_close.o)
 .debug_abbrev  0x0000000000008765      0x155 ../ucosii_binary_game_hal_part1_bsp//libucosii_bsp.a(alt_dev.o)
 .debug_abbrev  0x00000000000088ba       0x5a ../ucosii_binary_game_hal_part1_bsp//libucosii_bsp.a(alt_errno.o)
 .debug_abbrev  0x0000000000008914       0xce ../ucosii_binary_game_hal_part1_bsp//libucosii_bsp.a(alt_exit.o)
 .debug_abbrev  0x00000000000089e2      0x133 ../ucosii_binary_game_hal_part1_bsp//libucosii_bsp.a(alt_fstat.o)
 .debug_abbrev  0x0000000000008b15       0x3b ../ucosii_binary_game_hal_part1_bsp//libucosii_bsp.a(alt_getpid.o)
 .debug_abbrev  0x0000000000008b50       0xfc ../ucosii_binary_game_hal_part1_bsp//libucosii_bsp.a(alt_gettod.o)
 .debug_abbrev  0x0000000000008c4c      0x133 ../ucosii_binary_game_hal_part1_bsp//libucosii_bsp.a(alt_isatty.o)
 .debug_abbrev  0x0000000000008d7f       0xa9 ../ucosii_binary_game_hal_part1_bsp//libucosii_bsp.a(alt_kill.o)
 .debug_abbrev  0x0000000000008e28       0xab ../ucosii_binary_game_hal_part1_bsp//libucosii_bsp.a(alt_load.o)
 .debug_abbrev  0x0000000000008ed3      0x133 ../ucosii_binary_game_hal_part1_bsp//libucosii_bsp.a(alt_lseek.o)
 .debug_abbrev  0x0000000000009006      0x12a ../ucosii_binary_game_hal_part1_bsp//libucosii_bsp.a(alt_main.o)
 .debug_abbrev  0x0000000000009130      0x144 ../ucosii_binary_game_hal_part1_bsp//libucosii_bsp.a(alt_read.o)
 .debug_abbrev  0x0000000000009274       0xea ../ucosii_binary_game_hal_part1_bsp//libucosii_bsp.a(alt_release_fd.o)
 .debug_abbrev  0x000000000000935e      0x11d ../ucosii_binary_game_hal_part1_bsp//libucosii_bsp.a(alt_sbrk.o)
 .debug_abbrev  0x000000000000947b      0x17a ../ucosii_binary_game_hal_part1_bsp//libucosii_bsp.a(alt_tick.o)
 .debug_abbrev  0x00000000000095f5      0x149 ../ucosii_binary_game_hal_part1_bsp//libucosii_bsp.a(alt_write.o)
 .debug_abbrev  0x000000000000973e      0x21c ../ucosii_binary_game_hal_part1_bsp//libucosii_bsp.a(alt_env_lock.o)
 .debug_abbrev  0x000000000000995a      0x28f ../ucosii_binary_game_hal_part1_bsp//libucosii_bsp.a(alt_malloc_lock.o)
 .debug_abbrev  0x0000000000009be9      0x337 ../ucosii_binary_game_hal_part1_bsp//libucosii_bsp.a(os_core.o)
 .debug_abbrev  0x0000000000009f20       0x85 ../ucosii_binary_game_hal_part1_bsp//libucosii_bsp.a(os_dbg.o)
 .debug_abbrev  0x0000000000009fa5      0x26b ../ucosii_binary_game_hal_part1_bsp//libucosii_bsp.a(os_flag.o)
 .debug_abbrev  0x000000000000a210      0x235 ../ucosii_binary_game_hal_part1_bsp//libucosii_bsp.a(os_mem.o)
 .debug_abbrev  0x000000000000a445      0x262 ../ucosii_binary_game_hal_part1_bsp//libucosii_bsp.a(os_mutex.o)
 .debug_abbrev  0x000000000000a6a7      0x259 ../ucosii_binary_game_hal_part1_bsp//libucosii_bsp.a(os_q.o)
 .debug_abbrev  0x000000000000a900      0x275 ../ucosii_binary_game_hal_part1_bsp//libucosii_bsp.a(os_sem.o)
 .debug_abbrev  0x000000000000ab75      0x256 ../ucosii_binary_game_hal_part1_bsp//libucosii_bsp.a(os_task.o)
 .debug_abbrev  0x000000000000adcb      0x21e ../ucosii_binary_game_hal_part1_bsp//libucosii_bsp.a(os_time.o)
 .debug_abbrev  0x000000000000afe9      0x208 ../ucosii_binary_game_hal_part1_bsp//libucosii_bsp.a(alt_sys_init.o)
 .debug_abbrev  0x000000000000b1f1      0x180 ../ucosii_binary_game_hal_part1_bsp//libucosii_bsp.a(altera_avalon_jtag_uart_fd.o)
 .debug_abbrev  0x000000000000b371      0x283 ../ucosii_binary_game_hal_part1_bsp//libucosii_bsp.a(altera_avalon_jtag_uart_init.o)
 .debug_abbrev  0x000000000000b5f4      0x14c ../ucosii_binary_game_hal_part1_bsp//libucosii_bsp.a(altera_avalon_jtag_uart_ioctl.o)
 .debug_abbrev  0x000000000000b740      0x235 ../ucosii_binary_game_hal_part1_bsp//libucosii_bsp.a(altera_avalon_jtag_uart_read.o)
 .debug_abbrev  0x000000000000b975      0x222 ../ucosii_binary_game_hal_part1_bsp//libucosii_bsp.a(altera_avalon_jtag_uart_write.o)
 .debug_abbrev  0x000000000000bb97      0x14b ../ucosii_binary_game_hal_part1_bsp//libucosii_bsp.a(altera_avalon_timer_sc.o)
 .debug_abbrev  0x000000000000bce2      0x167 ../ucosii_binary_game_hal_part1_bsp//libucosii_bsp.a(altera_up_avalon_character_lcd.o)
 .debug_abbrev  0x000000000000be49      0x167 ../ucosii_binary_game_hal_part1_bsp//libucosii_bsp.a(altera_up_avalon_irda.o)
 .debug_abbrev  0x000000000000bfb0      0x1e1 ../ucosii_binary_game_hal_part1_bsp//libucosii_bsp.a(altera_up_avalon_ps2.o)
 .debug_abbrev  0x000000000000c191      0x167 ../ucosii_binary_game_hal_part1_bsp//libucosii_bsp.a(altera_up_avalon_rs232.o)
 .debug_abbrev  0x000000000000c2f8      0x188 ../ucosii_binary_game_hal_part1_bsp//libucosii_bsp.a(alt_alarm_start.o)
 .debug_abbrev  0x000000000000c480       0x44 ../ucosii_binary_game_hal_part1_bsp//libucosii_bsp.a(alt_dcache_flush_all.o)
 .debug_abbrev  0x000000000000c4c4      0x12a ../ucosii_binary_game_hal_part1_bsp//libucosii_bsp.a(alt_dev_llist_insert.o)
 .debug_abbrev  0x000000000000c5ee       0x81 ../ucosii_binary_game_hal_part1_bsp//libucosii_bsp.a(alt_do_ctors.o)
 .debug_abbrev  0x000000000000c66f       0x81 ../ucosii_binary_game_hal_part1_bsp//libucosii_bsp.a(alt_do_dtors.o)
 .debug_abbrev  0x000000000000c6f0       0xed ../ucosii_binary_game_hal_part1_bsp//libucosii_bsp.a(alt_find_dev.o)
 .debug_abbrev  0x000000000000c7dd       0x44 ../ucosii_binary_game_hal_part1_bsp//libucosii_bsp.a(alt_icache_flush_all.o)
 .debug_abbrev  0x000000000000c821      0x126 ../ucosii_binary_game_hal_part1_bsp//libucosii_bsp.a(alt_io_redirect.o)
 .debug_abbrev  0x000000000000c947      0x1b0 ../ucosii_binary_game_hal_part1_bsp//libucosii_bsp.a(alt_irq_register.o)
 .debug_abbrev  0x000000000000caf7       0x44 ../ucosii_binary_game_hal_part1_bsp//libucosii_bsp.a(alt_irq_vars.o)
 .debug_abbrev  0x000000000000cb3b      0x160 ../ucosii_binary_game_hal_part1_bsp//libucosii_bsp.a(alt_open.o)
 .debug_abbrev  0x000000000000cc9b       0x44 ../ucosii_binary_game_hal_part1_bsp//libucosii_bsp.a(altera_nios2_gen2_irq.o)
 .debug_abbrev  0x000000000000ccdf       0x14 ../ucosii_binary_game_hal_part1_bsp//libucosii_bsp.a(os_cpu_a.o)
 .debug_abbrev  0x000000000000ccf3      0x24b ../ucosii_binary_game_hal_part1_bsp//libucosii_bsp.a(os_cpu_c.o)
 .debug_abbrev  0x000000000000cf3e      0x100 ../ucosii_binary_game_hal_part1_bsp//libucosii_bsp.a(alt_find_file.o)
 .debug_abbrev  0x000000000000d03e      0x1ab ../ucosii_binary_game_hal_part1_bsp//libucosii_bsp.a(alt_get_fd.o)
 .debug_abbrev  0x000000000000d1e9       0x96 ../ucosii_binary_game_hal_part1_bsp//libucosii_bsp.a(alt_icache_flush.o)
 .debug_abbrev  0x000000000000d27f       0x12 ../ucosii_binary_game_hal_part1_bsp//libucosii_bsp.a(alt_irq_entry.o)
 .debug_abbrev  0x000000000000d291      0x12d ../ucosii_binary_game_hal_part1_bsp//libucosii_bsp.a(alt_irq_handler.o)
 .debug_abbrev  0x000000000000d3be       0x12 ../ucosii_binary_game_hal_part1_bsp//libucosii_bsp.a(alt_exception_entry.o)
 .debug_abbrev  0x000000000000d3d0       0xea ../ucosii_binary_game_hal_part1_bsp//libucosii_bsp.a(alt_instruction_exception_entry.o)
 .debug_abbrev  0x000000000000d4ba       0xb7 /opt/intelFPGA/20.1.1/nios2eds/bin/gnu/H-x86_64-pc-linux-gnu/bin/../lib/gcc/nios2-elf/10.1.1/../../../../../H-x86_64-pc-linux-gnu/nios2-elf/lib/mhw-mulx/libc.a(lib_a-atexit.o)
 .debug_abbrev  0x000000000000d571      0x21d /opt/intelFPGA/20.1.1/nios2eds/bin/gnu/H-x86_64-pc-linux-gnu/bin/../lib/gcc/nios2-elf/10.1.1/../../../../../H-x86_64-pc-linux-gnu/nios2-elf/lib/mhw-mulx/libc.a(lib_a-exit.o)
 .debug_abbrev  0x000000000000d78e       0x8d /opt/intelFPGA/20.1.1/nios2eds/bin/gnu/H-x86_64-pc-linux-gnu/bin/../lib/gcc/nios2-elf/10.1.1/../../../../../H-x86_64-pc-linux-gnu/nios2-elf/lib/mhw-mulx/libc.a(lib_a-memcmp.o)
 .debug_abbrev  0x000000000000d81b      0x250 /opt/intelFPGA/20.1.1/nios2eds/bin/gnu/H-x86_64-pc-linux-gnu/bin/../lib/gcc/nios2-elf/10.1.1/../../../../../H-x86_64-pc-linux-gnu/nios2-elf/lib/mhw-mulx/libc.a(lib_a-__atexit.o)
 .debug_abbrev  0x000000000000da6b      0x259 /opt/intelFPGA/20.1.1/nios2eds/bin/gnu/H-x86_64-pc-linux-gnu/bin/../lib/gcc/nios2-elf/10.1.1/../../../../../H-x86_64-pc-linux-gnu/nios2-elf/lib/mhw-mulx/libc.a(lib_a-__call_atexit.o)

.debug_line     0x0000000000000000    0x1c204
 *(.debug_line)
 .debug_line    0x0000000000000000       0x6c ../ucosii_binary_game_hal_part1_bsp//obj/HAL/src/crt0.o
 .debug_line    0x000000000000006c      0x55d obj/default/hello_ucosii.o
 .debug_line    0x00000000000005c9      0x238 /opt/intelFPGA/20.1.1/nios2eds/bin/gnu/H-x86_64-pc-linux-gnu/bin/../lib/gcc/nios2-elf/10.1.1/../../../../../H-x86_64-pc-linux-gnu/nios2-elf/lib/mhw-mulx/libc.a(lib_a-memcpy.o)
 .debug_line    0x0000000000000801      0x252 /opt/intelFPGA/20.1.1/nios2eds/bin/gnu/H-x86_64-pc-linux-gnu/bin/../lib/gcc/nios2-elf/10.1.1/../../../../../H-x86_64-pc-linux-gnu/nios2-elf/lib/mhw-mulx/libc.a(lib_a-printf.o)
 .debug_line    0x0000000000000a53      0x23d /opt/intelFPGA/20.1.1/nios2eds/bin/gnu/H-x86_64-pc-linux-gnu/bin/../lib/gcc/nios2-elf/10.1.1/../../../../../H-x86_64-pc-linux-gnu/nios2-elf/lib/mhw-mulx/libc.a(lib_a-rand.o)
 .debug_line    0x0000000000000c90      0x2b2 /opt/intelFPGA/20.1.1/nios2eds/bin/gnu/H-x86_64-pc-linux-gnu/bin/../lib/gcc/nios2-elf/10.1.1/../../../../../H-x86_64-pc-linux-gnu/nios2-elf/lib/mhw-mulx/libc.a(lib_a-time.o)
 .debug_line    0x0000000000000f42     0x1c74 /opt/intelFPGA/20.1.1/nios2eds/bin/gnu/H-x86_64-pc-linux-gnu/bin/../lib/gcc/nios2-elf/10.1.1/../../../../../H-x86_64-pc-linux-gnu/nios2-elf/lib/mhw-mulx/libc.a(lib_a-vfprintf.o)
 .debug_line    0x0000000000002bb6      0x3c1 /opt/intelFPGA/20.1.1/nios2eds/bin/gnu/H-x86_64-pc-linux-gnu/bin/../lib/gcc/nios2-elf/10.1.1/../../../../../H-x86_64-pc-linux-gnu/nios2-elf/lib/mhw-mulx/libc.a(lib_a-wsetup.o)
 .debug_line    0x0000000000002f77     0x16bb /opt/intelFPGA/20.1.1/nios2eds/bin/gnu/H-x86_64-pc-linux-gnu/bin/../lib/gcc/nios2-elf/10.1.1/../../../../../H-x86_64-pc-linux-gnu/nios2-elf/lib/mhw-mulx/libc.a(lib_a-dtoa.o)
 .debug_line    0x0000000000004632      0x567 /opt/intelFPGA/20.1.1/nios2eds/bin/gnu/H-x86_64-pc-linux-gnu/bin/../lib/gcc/nios2-elf/10.1.1/../../../../../H-x86_64-pc-linux-gnu/nios2-elf/lib/mhw-mulx/libc.a(lib_a-fflush.o)
 .debug_line    0x0000000000004b99      0x69c /opt/intelFPGA/20.1.1/nios2eds/bin/gnu/H-x86_64-pc-linux-gnu/bin/../lib/gcc/nios2-elf/10.1.1/../../../../../H-x86_64-pc-linux-gnu/nios2-elf/lib/mhw-mulx/libc.a(lib_a-findfp.o)
 .debug_line    0x0000000000005235      0x5cb /opt/intelFPGA/20.1.1/nios2eds/bin/gnu/H-x86_64-pc-linux-gnu/bin/../lib/gcc/nios2-elf/10.1.1/../../../../../H-x86_64-pc-linux-gnu/nios2-elf/lib/mhw-mulx/libc.a(lib_a-freer.o)
 .debug_line    0x0000000000005800      0x369 /opt/intelFPGA/20.1.1/nios2eds/bin/gnu/H-x86_64-pc-linux-gnu/bin/../lib/gcc/nios2-elf/10.1.1/../../../../../H-x86_64-pc-linux-gnu/nios2-elf/lib/mhw-mulx/libc.a(lib_a-fwalk.o)
 .debug_line    0x0000000000005b69      0x2ca /opt/intelFPGA/20.1.1/nios2eds/bin/gnu/H-x86_64-pc-linux-gnu/bin/../lib/gcc/nios2-elf/10.1.1/../../../../../H-x86_64-pc-linux-gnu/nios2-elf/lib/mhw-mulx/libc.a(lib_a-gettimeofdayr.o)
 .debug_line    0x0000000000005e33      0x167 /opt/intelFPGA/20.1.1/nios2eds/bin/gnu/H-x86_64-pc-linux-gnu/bin/../lib/gcc/nios2-elf/10.1.1/../../../../../H-x86_64-pc-linux-gnu/nios2-elf/lib/mhw-mulx/libc.a(lib_a-impure.o)
 .debug_line    0x0000000000005f9a       0x61 /opt/intelFPGA/20.1.1/nios2eds/bin/gnu/H-x86_64-pc-linux-gnu/bin/../lib/gcc/nios2-elf/10.1.1/../../../../../H-x86_64-pc-linux-gnu/nios2-elf/lib/mhw-mulx/libc.a(lib_a-int_errno.o)
 .debug_line    0x0000000000005ffb      0x28d /opt/intelFPGA/20.1.1/nios2eds/bin/gnu/H-x86_64-pc-linux-gnu/bin/../lib/gcc/nios2-elf/10.1.1/../../../../../H-x86_64-pc-linux-gnu/nios2-elf/lib/mhw-mulx/libc.a(lib_a-localeconv.o)
 .debug_line    0x0000000000006288      0x4e7 /opt/intelFPGA/20.1.1/nios2eds/bin/gnu/H-x86_64-pc-linux-gnu/bin/../lib/gcc/nios2-elf/10.1.1/../../../../../H-x86_64-pc-linux-gnu/nios2-elf/lib/mhw-mulx/libc.a(lib_a-makebuf.o)
 .debug_line    0x000000000000676f      0x97b /opt/intelFPGA/20.1.1/nios2eds/bin/gnu/H-x86_64-pc-linux-gnu/bin/../lib/gcc/nios2-elf/10.1.1/../../../../../H-x86_64-pc-linux-gnu/nios2-elf/lib/mhw-mulx/libc.a(lib_a-mallocr.o)
 .debug_line    0x00000000000070ea      0x224 /opt/intelFPGA/20.1.1/nios2eds/bin/gnu/H-x86_64-pc-linux-gnu/bin/../lib/gcc/nios2-elf/10.1.1/../../../../../H-x86_64-pc-linux-gnu/nios2-elf/lib/mhw-mulx/libc.a(lib_a-memchr.o)
 .debug_line    0x000000000000730e      0x259 /opt/intelFPGA/20.1.1/nios2eds/bin/gnu/H-x86_64-pc-linux-gnu/bin/../lib/gcc/nios2-elf/10.1.1/../../../../../H-x86_64-pc-linux-gnu/nios2-elf/lib/mhw-mulx/libc.a(lib_a-memset.o)
 .debug_line    0x0000000000007567     0x17ed /opt/intelFPGA/20.1.1/nios2eds/bin/gnu/H-x86_64-pc-linux-gnu/bin/../lib/gcc/nios2-elf/10.1.1/../../../../../H-x86_64-pc-linux-gnu/nios2-elf/lib/mhw-mulx/libc.a(lib_a-mprec.o)
 .debug_line    0x0000000000008d54      0x22b /opt/intelFPGA/20.1.1/nios2eds/bin/gnu/H-x86_64-pc-linux-gnu/bin/../lib/gcc/nios2-elf/10.1.1/../../../../../H-x86_64-pc-linux-gnu/nios2-elf/lib/mhw-mulx/libc.a(lib_a-sbrkr.o)
 .debug_line    0x0000000000008f7f      0x339 /opt/intelFPGA/20.1.1/nios2eds/bin/gnu/H-x86_64-pc-linux-gnu/bin/../lib/gcc/nios2-elf/10.1.1/../../../../../H-x86_64-pc-linux-gnu/nios2-elf/lib/mhw-mulx/libc.a(lib_a-stdio.o)
 .debug_line    0x00000000000092b8      0x1db /opt/intelFPGA/20.1.1/nios2eds/bin/gnu/H-x86_64-pc-linux-gnu/bin/../lib/gcc/nios2-elf/10.1.1/../../../../../H-x86_64-pc-linux-gnu/nios2-elf/lib/mhw-mulx/libc.a(lib_a-strlen.o)
 .debug_line    0x0000000000009493     0x15bb /opt/intelFPGA/20.1.1/nios2eds/bin/gnu/H-x86_64-pc-linux-gnu/bin/../lib/gcc/nios2-elf/10.1.1/../../../../../H-x86_64-pc-linux-gnu/nios2-elf/lib/mhw-mulx/libc.a(lib_a-vfiprintf.o)
 .debug_line    0x000000000000aa4e      0x238 /opt/intelFPGA/20.1.1/nios2eds/bin/gnu/H-x86_64-pc-linux-gnu/bin/../lib/gcc/nios2-elf/10.1.1/../../../../../H-x86_64-pc-linux-gnu/nios2-elf/lib/mhw-mulx/libc.a(lib_a-writer.o)
 .debug_line    0x000000000000ac86      0x237 /opt/intelFPGA/20.1.1/nios2eds/bin/gnu/H-x86_64-pc-linux-gnu/bin/../lib/gcc/nios2-elf/10.1.1/../../../../../H-x86_64-pc-linux-gnu/nios2-elf/lib/mhw-mulx/libc.a(closer.o)
 .debug_line    0x000000000000aebd      0x24e /opt/intelFPGA/20.1.1/nios2eds/bin/gnu/H-x86_64-pc-linux-gnu/bin/../lib/gcc/nios2-elf/10.1.1/../../../../../H-x86_64-pc-linux-gnu/nios2-elf/lib/mhw-mulx/libc.a(lib_a-assert.o)
 .debug_line    0x000000000000b10b      0x268 /opt/intelFPGA/20.1.1/nios2eds/bin/gnu/H-x86_64-pc-linux-gnu/bin/../lib/gcc/nios2-elf/10.1.1/../../../../../H-x86_64-pc-linux-gnu/nios2-elf/lib/mhw-mulx/libc.a(lib_a-callocr.o)
 .debug_line    0x000000000000b373      0x390 /opt/intelFPGA/20.1.1/nios2eds/bin/gnu/H-x86_64-pc-linux-gnu/bin/../lib/gcc/nios2-elf/10.1.1/../../../../../H-x86_64-pc-linux-gnu/nios2-elf/lib/mhw-mulx/libc.a(lib_a-fclose.o)
 .debug_line    0x000000000000b703      0x236 /opt/intelFPGA/20.1.1/nios2eds/bin/gnu/H-x86_64-pc-linux-gnu/bin/../lib/gcc/nios2-elf/10.1.1/../../../../../H-x86_64-pc-linux-gnu/nios2-elf/lib/mhw-mulx/libc.a(lib_a-fiprintf.o)
 .debug_line    0x000000000000b939      0x40d /opt/intelFPGA/20.1.1/nios2eds/bin/gnu/H-x86_64-pc-linux-gnu/bin/../lib/gcc/nios2-elf/10.1.1/../../../../../H-x86_64-pc-linux-gnu/nios2-elf/lib/mhw-mulx/libc.a(lib_a-fputwc.o)
 .debug_line    0x000000000000bd46      0x2dd /opt/intelFPGA/20.1.1/nios2eds/bin/gnu/H-x86_64-pc-linux-gnu/bin/../lib/gcc/nios2-elf/10.1.1/../../../../../H-x86_64-pc-linux-gnu/nios2-elf/lib/mhw-mulx/libc.a(lib_a-fstatr.o)
 .debug_line    0x000000000000c023      0x70d /opt/intelFPGA/20.1.1/nios2eds/bin/gnu/H-x86_64-pc-linux-gnu/bin/../lib/gcc/nios2-elf/10.1.1/../../../../../H-x86_64-pc-linux-gnu/nios2-elf/lib/mhw-mulx/libc.a(lib_a-fvwrite.o)
 .debug_line    0x000000000000c730      0x238 /opt/intelFPGA/20.1.1/nios2eds/bin/gnu/H-x86_64-pc-linux-gnu/bin/../lib/gcc/nios2-elf/10.1.1/../../../../../H-x86_64-pc-linux-gnu/nios2-elf/lib/mhw-mulx/libc.a(lib_a-isattyr.o)
 .debug_line    0x000000000000c968      0x35e /opt/intelFPGA/20.1.1/nios2eds/bin/gnu/H-x86_64-pc-linux-gnu/bin/../lib/gcc/nios2-elf/10.1.1/../../../../../H-x86_64-pc-linux-gnu/nios2-elf/lib/mhw-mulx/libc.a(lib_a-locale.o)
 .debug_line    0x000000000000ccc6      0x238 /opt/intelFPGA/20.1.1/nios2eds/bin/gnu/H-x86_64-pc-linux-gnu/bin/../lib/gcc/nios2-elf/10.1.1/../../../../../H-x86_64-pc-linux-gnu/nios2-elf/lib/mhw-mulx/libc.a(lib_a-lseekr.o)
 .debug_line    0x000000000000cefe      0x2c9 /opt/intelFPGA/20.1.1/nios2eds/bin/gnu/H-x86_64-pc-linux-gnu/bin/../lib/gcc/nios2-elf/10.1.1/../../../../../H-x86_64-pc-linux-gnu/nios2-elf/lib/mhw-mulx/libc.a(lib_a-mbtowc_r.o)
 .debug_line    0x000000000000d1c7      0x26e /opt/intelFPGA/20.1.1/nios2eds/bin/gnu/H-x86_64-pc-linux-gnu/bin/../lib/gcc/nios2-elf/10.1.1/../../../../../H-x86_64-pc-linux-gnu/nios2-elf/lib/mhw-mulx/libc.a(lib_a-memmove.o)
 .debug_line    0x000000000000d435      0x237 /opt/intelFPGA/20.1.1/nios2eds/bin/gnu/H-x86_64-pc-linux-gnu/bin/../lib/gcc/nios2-elf/10.1.1/../../../../../H-x86_64-pc-linux-gnu/nios2-elf/lib/mhw-mulx/libc.a(lib_a-readr.o)
 .debug_line    0x000000000000d66c      0x78a /opt/intelFPGA/20.1.1/nios2eds/bin/gnu/H-x86_64-pc-linux-gnu/bin/../lib/gcc/nios2-elf/10.1.1/../../../../../H-x86_64-pc-linux-gnu/nios2-elf/lib/mhw-mulx/libc.a(lib_a-reallocr.o)
 .debug_line    0x000000000000ddf6      0x17b /opt/intelFPGA/20.1.1/nios2eds/bin/gnu/H-x86_64-pc-linux-gnu/bin/../lib/gcc/nios2-elf/10.1.1/../../../../../H-x86_64-pc-linux-gnu/nios2-elf/lib/mhw-mulx/libc.a(lib_a-strcmp.o)
 .debug_line    0x000000000000df71      0x20a /opt/intelFPGA/20.1.1/nios2eds/bin/gnu/H-x86_64-pc-linux-gnu/bin/../lib/gcc/nios2-elf/10.1.1/../../../../../H-x86_64-pc-linux-gnu/nios2-elf/lib/mhw-mulx/libc.a(lib_a-vfiprintfr_1.o)
 .debug_line    0x000000000000e17b      0x385 /opt/intelFPGA/20.1.1/nios2eds/bin/gnu/H-x86_64-pc-linux-gnu/bin/../lib/gcc/nios2-elf/10.1.1/../../../../../H-x86_64-pc-linux-gnu/nios2-elf/lib/mhw-mulx/libc.a(lib_a-wbuf.o)
 .debug_line    0x000000000000e500      0x376 /opt/intelFPGA/20.1.1/nios2eds/bin/gnu/H-x86_64-pc-linux-gnu/bin/../lib/gcc/nios2-elf/10.1.1/../../../../../H-x86_64-pc-linux-gnu/nios2-elf/lib/mhw-mulx/libc.a(lib_a-wcrtomb.o)
 .debug_line    0x000000000000e876      0x2b6 /opt/intelFPGA/20.1.1/nios2eds/bin/gnu/H-x86_64-pc-linux-gnu/bin/../lib/gcc/nios2-elf/10.1.1/../../../../../H-x86_64-pc-linux-gnu/nios2-elf/lib/mhw-mulx/libc.a(lib_a-wctomb_r.o)
 .debug_line    0x000000000000eb2c      0x176 /opt/intelFPGA/20.1.1/nios2eds/bin/gnu/H-x86_64-pc-linux-gnu/bin/../lib/gcc/nios2-elf/10.1.1/../../../../../H-x86_64-pc-linux-gnu/nios2-elf/lib/mhw-mulx/libc.a(lib_a-abort.o)
 .debug_line    0x000000000000eca2       0xd8 /opt/intelFPGA/20.1.1/nios2eds/bin/gnu/H-x86_64-pc-linux-gnu/bin/../lib/gcc/nios2-elf/10.1.1/../../../../../H-x86_64-pc-linux-gnu/nios2-elf/lib/mhw-mulx/libc.a(lib_a-ctype_.o)
 .debug_line    0x000000000000ed7a      0x6e2 /opt/intelFPGA/20.1.1/nios2eds/bin/gnu/H-x86_64-pc-linux-gnu/bin/../lib/gcc/nios2-elf/10.1.1/../../../../../H-x86_64-pc-linux-gnu/nios2-elf/lib/mhw-mulx/libc.a(lib_a-signal.o)
 .debug_line    0x000000000000f45c      0x261 /opt/intelFPGA/20.1.1/nios2eds/bin/gnu/H-x86_64-pc-linux-gnu/bin/../lib/gcc/nios2-elf/10.1.1/../../../../../H-x86_64-pc-linux-gnu/nios2-elf/lib/mhw-mulx/libc.a(lib_a-signalr.o)
 .debug_line    0x000000000000f6bd      0x32d /opt/intelFPGA/20.1.1/nios2eds/bin/gnu/H-x86_64-pc-linux-gnu/bin/../lib/gcc/nios2-elf/10.1.1/mhw-mulx/libgcc.a(_udivdi3.o)
 .debug_line    0x000000000000f9ea      0x38a /opt/intelFPGA/20.1.1/nios2eds/bin/gnu/H-x86_64-pc-linux-gnu/bin/../lib/gcc/nios2-elf/10.1.1/mhw-mulx/libgcc.a(_umoddi3.o)
 .debug_line    0x000000000000fd74      0x306 /opt/intelFPGA/20.1.1/nios2eds/bin/gnu/H-x86_64-pc-linux-gnu/bin/../lib/gcc/nios2-elf/10.1.1/mhw-mulx/libgcc.a(lib2-divmod.o)
 .debug_line    0x000000000001007a      0xd53 /opt/intelFPGA/20.1.1/nios2eds/bin/gnu/H-x86_64-pc-linux-gnu/bin/../lib/gcc/nios2-elf/10.1.1/mhw-mulx/libgcc.a(adddf3.o)
 .debug_line    0x0000000000010dcd      0xabc /opt/intelFPGA/20.1.1/nios2eds/bin/gnu/H-x86_64-pc-linux-gnu/bin/../lib/gcc/nios2-elf/10.1.1/mhw-mulx/libgcc.a(divdf3.o)
 .debug_line    0x0000000000011889      0x10f /opt/intelFPGA/20.1.1/nios2eds/bin/gnu/H-x86_64-pc-linux-gnu/bin/../lib/gcc/nios2-elf/10.1.1/mhw-mulx/libgcc.a(eqdf2.o)
 .debug_line    0x0000000000011998      0x16a /opt/intelFPGA/20.1.1/nios2eds/bin/gnu/H-x86_64-pc-linux-gnu/bin/../lib/gcc/nios2-elf/10.1.1/mhw-mulx/libgcc.a(gedf2.o)
 .debug_line    0x0000000000011b02      0x16a /opt/intelFPGA/20.1.1/nios2eds/bin/gnu/H-x86_64-pc-linux-gnu/bin/../lib/gcc/nios2-elf/10.1.1/mhw-mulx/libgcc.a(ledf2.o)
 .debug_line    0x0000000000011c6c      0x9a1 /opt/intelFPGA/20.1.1/nios2eds/bin/gnu/H-x86_64-pc-linux-gnu/bin/../lib/gcc/nios2-elf/10.1.1/mhw-mulx/libgcc.a(muldf3.o)
 .debug_line    0x000000000001260d      0xd1c /opt/intelFPGA/20.1.1/nios2eds/bin/gnu/H-x86_64-pc-linux-gnu/bin/../lib/gcc/nios2-elf/10.1.1/mhw-mulx/libgcc.a(subdf3.o)
 .debug_line    0x0000000000013329       0xd5 /opt/intelFPGA/20.1.1/nios2eds/bin/gnu/H-x86_64-pc-linux-gnu/bin/../lib/gcc/nios2-elf/10.1.1/mhw-mulx/libgcc.a(unorddf2.o)
 .debug_line    0x00000000000133fe      0x131 /opt/intelFPGA/20.1.1/nios2eds/bin/gnu/H-x86_64-pc-linux-gnu/bin/../lib/gcc/nios2-elf/10.1.1/mhw-mulx/libgcc.a(fixdfsi.o)
 .debug_line    0x000000000001352f      0x1e6 /opt/intelFPGA/20.1.1/nios2eds/bin/gnu/H-x86_64-pc-linux-gnu/bin/../lib/gcc/nios2-elf/10.1.1/mhw-mulx/libgcc.a(floatsidf.o)
 .debug_line    0x0000000000013715      0x1d1 /opt/intelFPGA/20.1.1/nios2eds/bin/gnu/H-x86_64-pc-linux-gnu/bin/../lib/gcc/nios2-elf/10.1.1/mhw-mulx/libgcc.a(floatunsidf.o)
 .debug_line    0x00000000000138e6       0x59 /opt/intelFPGA/20.1.1/nios2eds/bin/gnu/H-x86_64-pc-linux-gnu/bin/../lib/gcc/nios2-elf/10.1.1/mhw-mulx/libgcc.a(_clz.o)
 .debug_line    0x000000000001393f       0xaa /opt/intelFPGA/20.1.1/nios2eds/bin/gnu/H-x86_64-pc-linux-gnu/bin/../lib/gcc/nios2-elf/10.1.1/mhw-mulx/libgcc.a(_clzsi2.o)
 .debug_line    0x00000000000139e9      0x1b0 ../ucosii_binary_game_hal_part1_bsp//libucosii_bsp.a(alt_close.o)
 .debug_line    0x0000000000013b99      0x1cd ../ucosii_binary_game_hal_part1_bsp//libucosii_bsp.a(alt_dev.o)
 .debug_line    0x0000000000013d66       0x51 ../ucosii_binary_game_hal_part1_bsp//libucosii_bsp.a(alt_errno.o)
 .debug_line    0x0000000000013db7       0xb5 ../ucosii_binary_game_hal_part1_bsp//libucosii_bsp.a(alt_exit.o)
 .debug_line    0x0000000000013e6c      0x21c ../ucosii_binary_game_hal_part1_bsp//libucosii_bsp.a(alt_fstat.o)
 .debug_line    0x0000000000014088       0x4c ../ucosii_binary_game_hal_part1_bsp//libucosii_bsp.a(alt_getpid.o)
 .debug_line    0x00000000000140d4      0x219 ../ucosii_binary_game_hal_part1_bsp//libucosii_bsp.a(alt_gettod.o)
 .debug_line    0x00000000000142ed      0x21e ../ucosii_binary_game_hal_part1_bsp//libucosii_bsp.a(alt_isatty.o)
 .debug_line    0x000000000001450b      0x11c ../ucosii_binary_game_hal_part1_bsp//libucosii_bsp.a(alt_kill.o)
 .debug_line    0x0000000000014627       0xa6 ../ucosii_binary_game_hal_part1_bsp//libucosii_bsp.a(alt_load.o)
 .debug_line    0x00000000000146cd      0x1a1 ../ucosii_binary_game_hal_part1_bsp//libucosii_bsp.a(alt_lseek.o)
 .debug_line    0x000000000001486e      0x109 ../ucosii_binary_game_hal_part1_bsp//libucosii_bsp.a(alt_main.o)
 .debug_line    0x0000000000014977      0x2b7 ../ucosii_binary_game_hal_part1_bsp//libucosii_bsp.a(alt_read.o)
 .debug_line    0x0000000000014c2e       0xb6 ../ucosii_binary_game_hal_part1_bsp//libucosii_bsp.a(alt_release_fd.o)
 .debug_line    0x0000000000014ce4      0x113 ../ucosii_binary_game_hal_part1_bsp//libucosii_bsp.a(alt_sbrk.o)
 .debug_line    0x0000000000014df7      0x160 ../ucosii_binary_game_hal_part1_bsp//libucosii_bsp.a(alt_tick.o)
 .debug_line    0x0000000000014f57      0x2ba ../ucosii_binary_game_hal_part1_bsp//libucosii_bsp.a(alt_write.o)
 .debug_line    0x0000000000015211      0x1c8 ../ucosii_binary_game_hal_part1_bsp//libucosii_bsp.a(alt_env_lock.o)
 .debug_line    0x00000000000153d9      0x261 ../ucosii_binary_game_hal_part1_bsp//libucosii_bsp.a(alt_malloc_lock.o)
 .debug_line    0x000000000001563a      0xbf7 ../ucosii_binary_game_hal_part1_bsp//libucosii_bsp.a(os_core.o)
 .debug_line    0x0000000000016231       0x91 ../ucosii_binary_game_hal_part1_bsp//libucosii_bsp.a(os_dbg.o)
 .debug_line    0x00000000000162c2      0x8fe ../ucosii_binary_game_hal_part1_bsp//libucosii_bsp.a(os_flag.o)
 .debug_line    0x0000000000016bc0      0x3ae ../ucosii_binary_game_hal_part1_bsp//libucosii_bsp.a(os_mem.o)
 .debug_line    0x0000000000016f6e      0x6b8 ../ucosii_binary_game_hal_part1_bsp//libucosii_bsp.a(os_mutex.o)
 .debug_line    0x0000000000017626      0x762 ../ucosii_binary_game_hal_part1_bsp//libucosii_bsp.a(os_q.o)
 .debug_line    0x0000000000017d88      0x4e3 ../ucosii_binary_game_hal_part1_bsp//libucosii_bsp.a(os_sem.o)
 .debug_line    0x000000000001826b      0x956 ../ucosii_binary_game_hal_part1_bsp//libucosii_bsp.a(os_task.o)
 .debug_line    0x0000000000018bc1      0x284 ../ucosii_binary_game_hal_part1_bsp//libucosii_bsp.a(os_time.o)
 .debug_line    0x0000000000018e45      0x399 ../ucosii_binary_game_hal_part1_bsp//libucosii_bsp.a(alt_sys_init.o)
 .debug_line    0x00000000000191de      0x16f ../ucosii_binary_game_hal_part1_bsp//libucosii_bsp.a(altera_avalon_jtag_uart_fd.o)
 .debug_line    0x000000000001934d      0x324 ../ucosii_binary_game_hal_part1_bsp//libucosii_bsp.a(altera_avalon_jtag_uart_init.o)
 .debug_line    0x0000000000019671      0x17a ../ucosii_binary_game_hal_part1_bsp//libucosii_bsp.a(altera_avalon_jtag_uart_ioctl.o)
 .debug_line    0x00000000000197eb      0x257 ../ucosii_binary_game_hal_part1_bsp//libucosii_bsp.a(altera_avalon_jtag_uart_read.o)
 .debug_line    0x0000000000019a42      0x260 ../ucosii_binary_game_hal_part1_bsp//libucosii_bsp.a(altera_avalon_jtag_uart_write.o)
 .debug_line    0x0000000000019ca2       0xff ../ucosii_binary_game_hal_part1_bsp//libucosii_bsp.a(altera_avalon_timer_sc.o)
 .debug_line    0x0000000000019da1      0x23e ../ucosii_binary_game_hal_part1_bsp//libucosii_bsp.a(altera_up_avalon_character_lcd.o)
 .debug_line    0x0000000000019fdf      0x1b7 ../ucosii_binary_game_hal_part1_bsp//libucosii_bsp.a(altera_up_avalon_irda.o)
 .debug_line    0x000000000001a196      0x2b0 ../ucosii_binary_game_hal_part1_bsp//libucosii_bsp.a(altera_up_avalon_ps2.o)
 .debug_line    0x000000000001a446      0x1b9 ../ucosii_binary_game_hal_part1_bsp//libucosii_bsp.a(altera_up_avalon_rs232.o)
 .debug_line    0x000000000001a5ff      0x138 ../ucosii_binary_game_hal_part1_bsp//libucosii_bsp.a(alt_alarm_start.o)
 .debug_line    0x000000000001a737       0x53 ../ucosii_binary_game_hal_part1_bsp//libucosii_bsp.a(alt_dcache_flush_all.o)
 .debug_line    0x000000000001a78a      0x106 ../ucosii_binary_game_hal_part1_bsp//libucosii_bsp.a(alt_dev_llist_insert.o)
 .debug_line    0x000000000001a890       0x66 ../ucosii_binary_game_hal_part1_bsp//libucosii_bsp.a(alt_do_ctors.o)
 .debug_line    0x000000000001a8f6       0x66 ../ucosii_binary_game_hal_part1_bsp//libucosii_bsp.a(alt_do_dtors.o)
 .debug_line    0x000000000001a95c       0xb8 ../ucosii_binary_game_hal_part1_bsp//libucosii_bsp.a(alt_find_dev.o)
 .debug_line    0x000000000001aa14       0x56 ../ucosii_binary_game_hal_part1_bsp//libucosii_bsp.a(alt_icache_flush_all.o)
 .debug_line    0x000000000001aa6a      0x1da ../ucosii_binary_game_hal_part1_bsp//libucosii_bsp.a(alt_io_redirect.o)
 .debug_line    0x000000000001ac44      0x1ad ../ucosii_binary_game_hal_part1_bsp//libucosii_bsp.a(alt_irq_register.o)
 .debug_line    0x000000000001adf1       0x50 ../ucosii_binary_game_hal_part1_bsp//libucosii_bsp.a(alt_irq_vars.o)
 .debug_line    0x000000000001ae41      0x1a0 ../ucosii_binary_game_hal_part1_bsp//libucosii_bsp.a(alt_open.o)
 .debug_line    0x000000000001afe1       0x57 ../ucosii_binary_game_hal_part1_bsp//libucosii_bsp.a(altera_nios2_gen2_irq.o)
 .debug_line    0x000000000001b038       0x86 ../ucosii_binary_game_hal_part1_bsp//libucosii_bsp.a(os_cpu_a.o)
 .debug_line    0x000000000001b0be      0x1d4 ../ucosii_binary_game_hal_part1_bsp//libucosii_bsp.a(os_cpu_c.o)
 .debug_line    0x000000000001b292      0x103 ../ucosii_binary_game_hal_part1_bsp//libucosii_bsp.a(alt_find_file.o)
 .debug_line    0x000000000001b395      0x13f ../ucosii_binary_game_hal_part1_bsp//libucosii_bsp.a(alt_get_fd.o)
 .debug_line    0x000000000001b4d4       0xa0 ../ucosii_binary_game_hal_part1_bsp//libucosii_bsp.a(alt_icache_flush.o)
 .debug_line    0x000000000001b574       0x6b ../ucosii_binary_game_hal_part1_bsp//libucosii_bsp.a(alt_irq_entry.o)
 .debug_line    0x000000000001b5df       0xd4 ../ucosii_binary_game_hal_part1_bsp//libucosii_bsp.a(alt_irq_handler.o)
 .debug_line    0x000000000001b6b3       0xb3 ../ucosii_binary_game_hal_part1_bsp//libucosii_bsp.a(alt_exception_entry.o)
 .debug_line    0x000000000001b766       0xd9 ../ucosii_binary_game_hal_part1_bsp//libucosii_bsp.a(alt_instruction_exception_entry.o)
 .debug_line    0x000000000001b83f       0xf7 /opt/intelFPGA/20.1.1/nios2eds/bin/gnu/H-x86_64-pc-linux-gnu/bin/../lib/gcc/nios2-elf/10.1.1/../../../../../H-x86_64-pc-linux-gnu/nios2-elf/lib/mhw-mulx/libc.a(lib_a-atexit.o)
 .debug_line    0x000000000001b936      0x22a /opt/intelFPGA/20.1.1/nios2eds/bin/gnu/H-x86_64-pc-linux-gnu/bin/../lib/gcc/nios2-elf/10.1.1/../../../../../H-x86_64-pc-linux-gnu/nios2-elf/lib/mhw-mulx/libc.a(lib_a-exit.o)
 .debug_line    0x000000000001bb60      0x1e6 /opt/intelFPGA/20.1.1/nios2eds/bin/gnu/H-x86_64-pc-linux-gnu/bin/../lib/gcc/nios2-elf/10.1.1/../../../../../H-x86_64-pc-linux-gnu/nios2-elf/lib/mhw-mulx/libc.a(lib_a-memcmp.o)
 .debug_line    0x000000000001bd46      0x21b /opt/intelFPGA/20.1.1/nios2eds/bin/gnu/H-x86_64-pc-linux-gnu/bin/../lib/gcc/nios2-elf/10.1.1/../../../../../H-x86_64-pc-linux-gnu/nios2-elf/lib/mhw-mulx/libc.a(lib_a-__atexit.o)
 .debug_line    0x000000000001bf61      0x2a3 /opt/intelFPGA/20.1.1/nios2eds/bin/gnu/H-x86_64-pc-linux-gnu/bin/../lib/gcc/nios2-elf/10.1.1/../../../../../H-x86_64-pc-linux-gnu/nios2-elf/lib/mhw-mulx/libc.a(lib_a-__call_atexit.o)

.debug_frame    0x0000000000000000     0x3e40
 *(.debug_frame)
 .debug_frame   0x0000000000000000      0x154 obj/default/hello_ucosii.o
 .debug_frame   0x0000000000000154       0x20 /opt/intelFPGA/20.1.1/nios2eds/bin/gnu/H-x86_64-pc-linux-gnu/bin/../lib/gcc/nios2-elf/10.1.1/../../../../../H-x86_64-pc-linux-gnu/nios2-elf/lib/mhw-mulx/libc.a(lib_a-memcpy.o)
 .debug_frame   0x0000000000000174       0x48 /opt/intelFPGA/20.1.1/nios2eds/bin/gnu/H-x86_64-pc-linux-gnu/bin/../lib/gcc/nios2-elf/10.1.1/../../../../../H-x86_64-pc-linux-gnu/nios2-elf/lib/mhw-mulx/libc.a(lib_a-printf.o)
 .debug_frame   0x00000000000001bc       0x30 /opt/intelFPGA/20.1.1/nios2eds/bin/gnu/H-x86_64-pc-linux-gnu/bin/../lib/gcc/nios2-elf/10.1.1/../../../../../H-x86_64-pc-linux-gnu/nios2-elf/lib/mhw-mulx/libc.a(lib_a-rand.o)
 .debug_frame   0x00000000000001ec       0x34 /opt/intelFPGA/20.1.1/nios2eds/bin/gnu/H-x86_64-pc-linux-gnu/bin/../lib/gcc/nios2-elf/10.1.1/../../../../../H-x86_64-pc-linux-gnu/nios2-elf/lib/mhw-mulx/libc.a(lib_a-time.o)
 .debug_frame   0x0000000000000220       0xb0 /opt/intelFPGA/20.1.1/nios2eds/bin/gnu/H-x86_64-pc-linux-gnu/bin/../lib/gcc/nios2-elf/10.1.1/../../../../../H-x86_64-pc-linux-gnu/nios2-elf/lib/mhw-mulx/libc.a(lib_a-vfprintf.o)
 .debug_frame   0x00000000000002d0       0x38 /opt/intelFPGA/20.1.1/nios2eds/bin/gnu/H-x86_64-pc-linux-gnu/bin/../lib/gcc/nios2-elf/10.1.1/../../../../../H-x86_64-pc-linux-gnu/nios2-elf/lib/mhw-mulx/libc.a(lib_a-wsetup.o)
 .debug_frame   0x0000000000000308       0x9c /opt/intelFPGA/20.1.1/nios2eds/bin/gnu/H-x86_64-pc-linux-gnu/bin/../lib/gcc/nios2-elf/10.1.1/../../../../../H-x86_64-pc-linux-gnu/nios2-elf/lib/mhw-mulx/libc.a(lib_a-dtoa.o)
 .debug_frame   0x00000000000003a4       0x94 /opt/intelFPGA/20.1.1/nios2eds/bin/gnu/H-x86_64-pc-linux-gnu/bin/../lib/gcc/nios2-elf/10.1.1/../../../../../H-x86_64-pc-linux-gnu/nios2-elf/lib/mhw-mulx/libc.a(lib_a-fflush.o)
 .debug_frame   0x0000000000000438      0x12c /opt/intelFPGA/20.1.1/nios2eds/bin/gnu/H-x86_64-pc-linux-gnu/bin/../lib/gcc/nios2-elf/10.1.1/../../../../../H-x86_64-pc-linux-gnu/nios2-elf/lib/mhw-mulx/libc.a(lib_a-findfp.o)
 .debug_frame   0x0000000000000564       0x78 /opt/intelFPGA/20.1.1/nios2eds/bin/gnu/H-x86_64-pc-linux-gnu/bin/../lib/gcc/nios2-elf/10.1.1/../../../../../H-x86_64-pc-linux-gnu/nios2-elf/lib/mhw-mulx/libc.a(lib_a-freer.o)
 .debug_frame   0x00000000000005dc       0x74 /opt/intelFPGA/20.1.1/nios2eds/bin/gnu/H-x86_64-pc-linux-gnu/bin/../lib/gcc/nios2-elf/10.1.1/../../../../../H-x86_64-pc-linux-gnu/nios2-elf/lib/mhw-mulx/libc.a(lib_a-fwalk.o)
 .debug_frame   0x0000000000000650       0x3c /opt/intelFPGA/20.1.1/nios2eds/bin/gnu/H-x86_64-pc-linux-gnu/bin/../lib/gcc/nios2-elf/10.1.1/../../../../../H-x86_64-pc-linux-gnu/nios2-elf/lib/mhw-mulx/libc.a(lib_a-gettimeofdayr.o)
 .debug_frame   0x000000000000068c       0x40 /opt/intelFPGA/20.1.1/nios2eds/bin/gnu/H-x86_64-pc-linux-gnu/bin/../lib/gcc/nios2-elf/10.1.1/../../../../../H-x86_64-pc-linux-gnu/nios2-elf/lib/mhw-mulx/libc.a(lib_a-localeconv.o)
 .debug_frame   0x00000000000006cc       0x70 /opt/intelFPGA/20.1.1/nios2eds/bin/gnu/H-x86_64-pc-linux-gnu/bin/../lib/gcc/nios2-elf/10.1.1/../../../../../H-x86_64-pc-linux-gnu/nios2-elf/lib/mhw-mulx/libc.a(lib_a-makebuf.o)
 .debug_frame   0x000000000000073c       0x58 /opt/intelFPGA/20.1.1/nios2eds/bin/gnu/H-x86_64-pc-linux-gnu/bin/../lib/gcc/nios2-elf/10.1.1/../../../../../H-x86_64-pc-linux-gnu/nios2-elf/lib/mhw-mulx/libc.a(lib_a-mallocr.o)
 .debug_frame   0x0000000000000794       0x20 /opt/intelFPGA/20.1.1/nios2eds/bin/gnu/H-x86_64-pc-linux-gnu/bin/../lib/gcc/nios2-elf/10.1.1/../../../../../H-x86_64-pc-linux-gnu/nios2-elf/lib/mhw-mulx/libc.a(lib_a-memchr.o)
 .debug_frame   0x00000000000007b4       0x20 /opt/intelFPGA/20.1.1/nios2eds/bin/gnu/H-x86_64-pc-linux-gnu/bin/../lib/gcc/nios2-elf/10.1.1/../../../../../H-x86_64-pc-linux-gnu/nios2-elf/lib/mhw-mulx/libc.a(lib_a-memset.o)
 .debug_frame   0x00000000000007d4      0x2e0 /opt/intelFPGA/20.1.1/nios2eds/bin/gnu/H-x86_64-pc-linux-gnu/bin/../lib/gcc/nios2-elf/10.1.1/../../../../../H-x86_64-pc-linux-gnu/nios2-elf/lib/mhw-mulx/libc.a(lib_a-mprec.o)
 .debug_frame   0x0000000000000ab4       0x3c /opt/intelFPGA/20.1.1/nios2eds/bin/gnu/H-x86_64-pc-linux-gnu/bin/../lib/gcc/nios2-elf/10.1.1/../../../../../H-x86_64-pc-linux-gnu/nios2-elf/lib/mhw-mulx/libc.a(lib_a-sbrkr.o)
 .debug_frame   0x0000000000000af0       0xb8 /opt/intelFPGA/20.1.1/nios2eds/bin/gnu/H-x86_64-pc-linux-gnu/bin/../lib/gcc/nios2-elf/10.1.1/../../../../../H-x86_64-pc-linux-gnu/nios2-elf/lib/mhw-mulx/libc.a(lib_a-stdio.o)
 .debug_frame   0x0000000000000ba8       0x20 /opt/intelFPGA/20.1.1/nios2eds/bin/gnu/H-x86_64-pc-linux-gnu/bin/../lib/gcc/nios2-elf/10.1.1/../../../../../H-x86_64-pc-linux-gnu/nios2-elf/lib/mhw-mulx/libc.a(lib_a-strlen.o)
 .debug_frame   0x0000000000000bc8      0x104 /opt/intelFPGA/20.1.1/nios2eds/bin/gnu/H-x86_64-pc-linux-gnu/bin/../lib/gcc/nios2-elf/10.1.1/../../../../../H-x86_64-pc-linux-gnu/nios2-elf/lib/mhw-mulx/libc.a(lib_a-vfiprintf.o)
 .debug_frame   0x0000000000000ccc       0x3c /opt/intelFPGA/20.1.1/nios2eds/bin/gnu/H-x86_64-pc-linux-gnu/bin/../lib/gcc/nios2-elf/10.1.1/../../../../../H-x86_64-pc-linux-gnu/nios2-elf/lib/mhw-mulx/libc.a(lib_a-writer.o)
 .debug_frame   0x0000000000000d08       0x3c /opt/intelFPGA/20.1.1/nios2eds/bin/gnu/H-x86_64-pc-linux-gnu/bin/../lib/gcc/nios2-elf/10.1.1/../../../../../H-x86_64-pc-linux-gnu/nios2-elf/lib/mhw-mulx/libc.a(closer.o)
 .debug_frame   0x0000000000000d44       0x40 /opt/intelFPGA/20.1.1/nios2eds/bin/gnu/H-x86_64-pc-linux-gnu/bin/../lib/gcc/nios2-elf/10.1.1/../../../../../H-x86_64-pc-linux-gnu/nios2-elf/lib/mhw-mulx/libc.a(lib_a-assert.o)
 .debug_frame   0x0000000000000d84       0x38 /opt/intelFPGA/20.1.1/nios2eds/bin/gnu/H-x86_64-pc-linux-gnu/bin/../lib/gcc/nios2-elf/10.1.1/../../../../../H-x86_64-pc-linux-gnu/nios2-elf/lib/mhw-mulx/libc.a(lib_a-callocr.o)
 .debug_frame   0x0000000000000dbc       0x94 /opt/intelFPGA/20.1.1/nios2eds/bin/gnu/H-x86_64-pc-linux-gnu/bin/../lib/gcc/nios2-elf/10.1.1/../../../../../H-x86_64-pc-linux-gnu/nios2-elf/lib/mhw-mulx/libc.a(lib_a-fclose.o)
 .debug_frame   0x0000000000000e50       0x48 /opt/intelFPGA/20.1.1/nios2eds/bin/gnu/H-x86_64-pc-linux-gnu/bin/../lib/gcc/nios2-elf/10.1.1/../../../../../H-x86_64-pc-linux-gnu/nios2-elf/lib/mhw-mulx/libc.a(lib_a-fiprintf.o)
 .debug_frame   0x0000000000000e98       0x78 /opt/intelFPGA/20.1.1/nios2eds/bin/gnu/H-x86_64-pc-linux-gnu/bin/../lib/gcc/nios2-elf/10.1.1/../../../../../H-x86_64-pc-linux-gnu/nios2-elf/lib/mhw-mulx/libc.a(lib_a-fputwc.o)
 .debug_frame   0x0000000000000f10       0x3c /opt/intelFPGA/20.1.1/nios2eds/bin/gnu/H-x86_64-pc-linux-gnu/bin/../lib/gcc/nios2-elf/10.1.1/../../../../../H-x86_64-pc-linux-gnu/nios2-elf/lib/mhw-mulx/libc.a(lib_a-fstatr.o)
 .debug_frame   0x0000000000000f4c       0x78 /opt/intelFPGA/20.1.1/nios2eds/bin/gnu/H-x86_64-pc-linux-gnu/bin/../lib/gcc/nios2-elf/10.1.1/../../../../../H-x86_64-pc-linux-gnu/nios2-elf/lib/mhw-mulx/libc.a(lib_a-fvwrite.o)
 .debug_frame   0x0000000000000fc4       0x3c /opt/intelFPGA/20.1.1/nios2eds/bin/gnu/H-x86_64-pc-linux-gnu/bin/../lib/gcc/nios2-elf/10.1.1/../../../../../H-x86_64-pc-linux-gnu/nios2-elf/lib/mhw-mulx/libc.a(lib_a-isattyr.o)
 .debug_frame   0x0000000000001000       0x80 /opt/intelFPGA/20.1.1/nios2eds/bin/gnu/H-x86_64-pc-linux-gnu/bin/../lib/gcc/nios2-elf/10.1.1/../../../../../H-x86_64-pc-linux-gnu/nios2-elf/lib/mhw-mulx/libc.a(lib_a-locale.o)
 .debug_frame   0x0000000000001080       0x3c /opt/intelFPGA/20.1.1/nios2eds/bin/gnu/H-x86_64-pc-linux-gnu/bin/../lib/gcc/nios2-elf/10.1.1/../../../../../H-x86_64-pc-linux-gnu/nios2-elf/lib/mhw-mulx/libc.a(lib_a-lseekr.o)
 .debug_frame   0x00000000000010bc       0x40 /opt/intelFPGA/20.1.1/nios2eds/bin/gnu/H-x86_64-pc-linux-gnu/bin/../lib/gcc/nios2-elf/10.1.1/../../../../../H-x86_64-pc-linux-gnu/nios2-elf/lib/mhw-mulx/libc.a(lib_a-mbtowc_r.o)
 .debug_frame   0x00000000000010fc       0x20 /opt/intelFPGA/20.1.1/nios2eds/bin/gnu/H-x86_64-pc-linux-gnu/bin/../lib/gcc/nios2-elf/10.1.1/../../../../../H-x86_64-pc-linux-gnu/nios2-elf/lib/mhw-mulx/libc.a(lib_a-memmove.o)
 .debug_frame   0x000000000000111c       0x3c /opt/intelFPGA/20.1.1/nios2eds/bin/gnu/H-x86_64-pc-linux-gnu/bin/../lib/gcc/nios2-elf/10.1.1/../../../../../H-x86_64-pc-linux-gnu/nios2-elf/lib/mhw-mulx/libc.a(lib_a-readr.o)
 .debug_frame   0x0000000000001158       0x70 /opt/intelFPGA/20.1.1/nios2eds/bin/gnu/H-x86_64-pc-linux-gnu/bin/../lib/gcc/nios2-elf/10.1.1/../../../../../H-x86_64-pc-linux-gnu/nios2-elf/lib/mhw-mulx/libc.a(lib_a-reallocr.o)
 .debug_frame   0x00000000000011c8       0x20 /opt/intelFPGA/20.1.1/nios2eds/bin/gnu/H-x86_64-pc-linux-gnu/bin/../lib/gcc/nios2-elf/10.1.1/../../../../../H-x86_64-pc-linux-gnu/nios2-elf/lib/mhw-mulx/libc.a(lib_a-strcmp.o)
 .debug_frame   0x00000000000011e8       0x20 /opt/intelFPGA/20.1.1/nios2eds/bin/gnu/H-x86_64-pc-linux-gnu/bin/../lib/gcc/nios2-elf/10.1.1/../../../../../H-x86_64-pc-linux-gnu/nios2-elf/lib/mhw-mulx/libc.a(lib_a-vfiprintfr_1.o)
 .debug_frame   0x0000000000001208       0x50 /opt/intelFPGA/20.1.1/nios2eds/bin/gnu/H-x86_64-pc-linux-gnu/bin/../lib/gcc/nios2-elf/10.1.1/../../../../../H-x86_64-pc-linux-gnu/nios2-elf/lib/mhw-mulx/libc.a(lib_a-wbuf.o)
 .debug_frame   0x0000000000001258       0x60 /opt/intelFPGA/20.1.1/nios2eds/bin/gnu/H-x86_64-pc-linux-gnu/bin/../lib/gcc/nios2-elf/10.1.1/../../../../../H-x86_64-pc-linux-gnu/nios2-elf/lib/mhw-mulx/libc.a(lib_a-wcrtomb.o)
 .debug_frame   0x00000000000012b8       0x30 /opt/intelFPGA/20.1.1/nios2eds/bin/gnu/H-x86_64-pc-linux-gnu/bin/../lib/gcc/nios2-elf/10.1.1/../../../../../H-x86_64-pc-linux-gnu/nios2-elf/lib/mhw-mulx/libc.a(lib_a-wctomb_r.o)
 .debug_frame   0x00000000000012e8       0x28 /opt/intelFPGA/20.1.1/nios2eds/bin/gnu/H-x86_64-pc-linux-gnu/bin/../lib/gcc/nios2-elf/10.1.1/../../../../../H-x86_64-pc-linux-gnu/nios2-elf/lib/mhw-mulx/libc.a(lib_a-abort.o)
 .debug_frame   0x0000000000001310      0x17c /opt/intelFPGA/20.1.1/nios2eds/bin/gnu/H-x86_64-pc-linux-gnu/bin/../lib/gcc/nios2-elf/10.1.1/../../../../../H-x86_64-pc-linux-gnu/nios2-elf/lib/mhw-mulx/libc.a(lib_a-signal.o)
 .debug_frame   0x000000000000148c       0x4c /opt/intelFPGA/20.1.1/nios2eds/bin/gnu/H-x86_64-pc-linux-gnu/bin/../lib/gcc/nios2-elf/10.1.1/../../../../../H-x86_64-pc-linux-gnu/nios2-elf/lib/mhw-mulx/libc.a(lib_a-signalr.o)
 .debug_frame   0x00000000000014d8       0x54 /opt/intelFPGA/20.1.1/nios2eds/bin/gnu/H-x86_64-pc-linux-gnu/bin/../lib/gcc/nios2-elf/10.1.1/mhw-mulx/libgcc.a(_udivdi3.o)
 .debug_frame   0x000000000000152c       0x54 /opt/intelFPGA/20.1.1/nios2eds/bin/gnu/H-x86_64-pc-linux-gnu/bin/../lib/gcc/nios2-elf/10.1.1/mhw-mulx/libgcc.a(_umoddi3.o)
 .debug_frame   0x0000000000001580       0x50 /opt/intelFPGA/20.1.1/nios2eds/bin/gnu/H-x86_64-pc-linux-gnu/bin/../lib/gcc/nios2-elf/10.1.1/mhw-mulx/libgcc.a(lib2-divmod.o)
 .debug_frame   0x00000000000015d0       0x44 /opt/intelFPGA/20.1.1/nios2eds/bin/gnu/H-x86_64-pc-linux-gnu/bin/../lib/gcc/nios2-elf/10.1.1/mhw-mulx/libgcc.a(adddf3.o)
 .debug_frame   0x0000000000001614       0x58 /opt/intelFPGA/20.1.1/nios2eds/bin/gnu/H-x86_64-pc-linux-gnu/bin/../lib/gcc/nios2-elf/10.1.1/mhw-mulx/libgcc.a(divdf3.o)
 .debug_frame   0x000000000000166c       0x20 /opt/intelFPGA/20.1.1/nios2eds/bin/gnu/H-x86_64-pc-linux-gnu/bin/../lib/gcc/nios2-elf/10.1.1/mhw-mulx/libgcc.a(eqdf2.o)
 .debug_frame   0x000000000000168c       0x20 /opt/intelFPGA/20.1.1/nios2eds/bin/gnu/H-x86_64-pc-linux-gnu/bin/../lib/gcc/nios2-elf/10.1.1/mhw-mulx/libgcc.a(gedf2.o)
 .debug_frame   0x00000000000016ac       0x20 /opt/intelFPGA/20.1.1/nios2eds/bin/gnu/H-x86_64-pc-linux-gnu/bin/../lib/gcc/nios2-elf/10.1.1/mhw-mulx/libgcc.a(ledf2.o)
 .debug_frame   0x00000000000016cc       0x54 /opt/intelFPGA/20.1.1/nios2eds/bin/gnu/H-x86_64-pc-linux-gnu/bin/../lib/gcc/nios2-elf/10.1.1/mhw-mulx/libgcc.a(muldf3.o)
 .debug_frame   0x0000000000001720       0x44 /opt/intelFPGA/20.1.1/nios2eds/bin/gnu/H-x86_64-pc-linux-gnu/bin/../lib/gcc/nios2-elf/10.1.1/mhw-mulx/libgcc.a(subdf3.o)
 .debug_frame   0x0000000000001764       0x20 /opt/intelFPGA/20.1.1/nios2eds/bin/gnu/H-x86_64-pc-linux-gnu/bin/../lib/gcc/nios2-elf/10.1.1/mhw-mulx/libgcc.a(unorddf2.o)
 .debug_frame   0x0000000000001784       0x20 /opt/intelFPGA/20.1.1/nios2eds/bin/gnu/H-x86_64-pc-linux-gnu/bin/../lib/gcc/nios2-elf/10.1.1/mhw-mulx/libgcc.a(fixdfsi.o)
 .debug_frame   0x00000000000017a4       0x38 /opt/intelFPGA/20.1.1/nios2eds/bin/gnu/H-x86_64-pc-linux-gnu/bin/../lib/gcc/nios2-elf/10.1.1/mhw-mulx/libgcc.a(floatsidf.o)
 .debug_frame   0x00000000000017dc       0x34 /opt/intelFPGA/20.1.1/nios2eds/bin/gnu/H-x86_64-pc-linux-gnu/bin/../lib/gcc/nios2-elf/10.1.1/mhw-mulx/libgcc.a(floatunsidf.o)
 .debug_frame   0x0000000000001810       0x20 /opt/intelFPGA/20.1.1/nios2eds/bin/gnu/H-x86_64-pc-linux-gnu/bin/../lib/gcc/nios2-elf/10.1.1/mhw-mulx/libgcc.a(_clzsi2.o)
 .debug_frame   0x0000000000001830       0x60 ../ucosii_binary_game_hal_part1_bsp//libucosii_bsp.a(alt_close.o)
 .debug_frame   0x0000000000001890       0x34 ../ucosii_binary_game_hal_part1_bsp//libucosii_bsp.a(alt_dev.o)
 .debug_frame   0x00000000000018c4       0x2c ../ucosii_binary_game_hal_part1_bsp//libucosii_bsp.a(alt_exit.o)
 .debug_frame   0x00000000000018f0       0x60 ../ucosii_binary_game_hal_part1_bsp//libucosii_bsp.a(alt_fstat.o)
 .debug_frame   0x0000000000001950       0x34 ../ucosii_binary_game_hal_part1_bsp//libucosii_bsp.a(alt_getpid.o)
 .debug_frame   0x0000000000001984       0x40 ../ucosii_binary_game_hal_part1_bsp//libucosii_bsp.a(alt_gettod.o)
 .debug_frame   0x00000000000019c4       0x60 ../ucosii_binary_game_hal_part1_bsp//libucosii_bsp.a(alt_isatty.o)
 .debug_frame   0x0000000000001a24       0x60 ../ucosii_binary_game_hal_part1_bsp//libucosii_bsp.a(alt_kill.o)
 .debug_frame   0x0000000000001a84       0x5c ../ucosii_binary_game_hal_part1_bsp//libucosii_bsp.a(alt_load.o)
 .debug_frame   0x0000000000001ae0       0x60 ../ucosii_binary_game_hal_part1_bsp//libucosii_bsp.a(alt_lseek.o)
 .debug_frame   0x0000000000001b40       0x2c ../ucosii_binary_game_hal_part1_bsp//libucosii_bsp.a(alt_main.o)
 .debug_frame   0x0000000000001b6c       0x60 ../ucosii_binary_game_hal_part1_bsp//libucosii_bsp.a(alt_read.o)
 .debug_frame   0x0000000000001bcc       0x34 ../ucosii_binary_game_hal_part1_bsp//libucosii_bsp.a(alt_release_fd.o)
 .debug_frame   0x0000000000001c00       0x34 ../ucosii_binary_game_hal_part1_bsp//libucosii_bsp.a(alt_sbrk.o)
 .debug_frame   0x0000000000001c34       0x5c ../ucosii_binary_game_hal_part1_bsp//libucosii_bsp.a(alt_tick.o)
 .debug_frame   0x0000000000001c90       0x60 ../ucosii_binary_game_hal_part1_bsp//libucosii_bsp.a(alt_write.o)
 .debug_frame   0x0000000000001cf0       0x60 ../ucosii_binary_game_hal_part1_bsp//libucosii_bsp.a(alt_env_lock.o)
 .debug_frame   0x0000000000001d50       0x64 ../ucosii_binary_game_hal_part1_bsp//libucosii_bsp.a(alt_malloc_lock.o)
 .debug_frame   0x0000000000001db4      0x530 ../ucosii_binary_game_hal_part1_bsp//libucosii_bsp.a(os_core.o)
 .debug_frame   0x00000000000022e4       0x34 ../ucosii_binary_game_hal_part1_bsp//libucosii_bsp.a(os_dbg.o)
 .debug_frame   0x0000000000002318      0x200 ../ucosii_binary_game_hal_part1_bsp//libucosii_bsp.a(os_flag.o)
 .debug_frame   0x0000000000002518      0x118 ../ucosii_binary_game_hal_part1_bsp//libucosii_bsp.a(os_mem.o)
 .debug_frame   0x0000000000002630      0x11c ../ucosii_binary_game_hal_part1_bsp//libucosii_bsp.a(os_mutex.o)
 .debug_frame   0x000000000000274c      0x1bc ../ucosii_binary_game_hal_part1_bsp//libucosii_bsp.a(os_q.o)
 .debug_frame   0x0000000000002908      0x144 ../ucosii_binary_game_hal_part1_bsp//libucosii_bsp.a(os_sem.o)
 .debug_frame   0x0000000000002a4c      0x1e4 ../ucosii_binary_game_hal_part1_bsp//libucosii_bsp.a(os_task.o)
 .debug_frame   0x0000000000002c30       0xd0 ../ucosii_binary_game_hal_part1_bsp//libucosii_bsp.a(os_time.o)
 .debug_frame   0x0000000000002d00       0x88 ../ucosii_binary_game_hal_part1_bsp//libucosii_bsp.a(alt_sys_init.o)
 .debug_frame   0x0000000000002d88       0xb0 ../ucosii_binary_game_hal_part1_bsp//libucosii_bsp.a(altera_avalon_jtag_uart_fd.o)
 .debug_frame   0x0000000000002e38       0xac ../ucosii_binary_game_hal_part1_bsp//libucosii_bsp.a(altera_avalon_jtag_uart_init.o)
 .debug_frame   0x0000000000002ee4       0x34 ../ucosii_binary_game_hal_part1_bsp//libucosii_bsp.a(altera_avalon_jtag_uart_ioctl.o)
 .debug_frame   0x0000000000002f18       0x38 ../ucosii_binary_game_hal_part1_bsp//libucosii_bsp.a(altera_avalon_jtag_uart_read.o)
 .debug_frame   0x0000000000002f50       0x38 ../ucosii_binary_game_hal_part1_bsp//libucosii_bsp.a(altera_avalon_jtag_uart_write.o)
 .debug_frame   0x0000000000002f88       0x60 ../ucosii_binary_game_hal_part1_bsp//libucosii_bsp.a(altera_avalon_timer_sc.o)
 .debug_frame   0x0000000000002fe8      0x204 ../ucosii_binary_game_hal_part1_bsp//libucosii_bsp.a(altera_up_avalon_character_lcd.o)
 .debug_frame   0x00000000000031ec      0x188 ../ucosii_binary_game_hal_part1_bsp//libucosii_bsp.a(altera_up_avalon_irda.o)
 .debug_frame   0x0000000000003374      0x2c0 ../ucosii_binary_game_hal_part1_bsp//libucosii_bsp.a(altera_up_avalon_ps2.o)
 .debug_frame   0x0000000000003634      0x188 ../ucosii_binary_game_hal_part1_bsp//libucosii_bsp.a(altera_up_avalon_rs232.o)
 .debug_frame   0x00000000000037bc       0x34 ../ucosii_binary_game_hal_part1_bsp//libucosii_bsp.a(alt_alarm_start.o)
 .debug_frame   0x00000000000037f0       0x34 ../ucosii_binary_game_hal_part1_bsp//libucosii_bsp.a(alt_dcache_flush_all.o)
 .debug_frame   0x0000000000003824       0x60 ../ucosii_binary_game_hal_part1_bsp//libucosii_bsp.a(alt_dev_llist_insert.o)
 .debug_frame   0x0000000000003884       0x38 ../ucosii_binary_game_hal_part1_bsp//libucosii_bsp.a(alt_do_ctors.o)
 .debug_frame   0x00000000000038bc       0x38 ../ucosii_binary_game_hal_part1_bsp//libucosii_bsp.a(alt_do_dtors.o)
 .debug_frame   0x00000000000038f4       0x38 ../ucosii_binary_game_hal_part1_bsp//libucosii_bsp.a(alt_find_dev.o)
 .debug_frame   0x000000000000392c       0x38 ../ucosii_binary_game_hal_part1_bsp//libucosii_bsp.a(alt_icache_flush_all.o)
 .debug_frame   0x0000000000003964       0x60 ../ucosii_binary_game_hal_part1_bsp//libucosii_bsp.a(alt_io_redirect.o)
 .debug_frame   0x00000000000039c4       0x34 ../ucosii_binary_game_hal_part1_bsp//libucosii_bsp.a(alt_irq_register.o)
 .debug_frame   0x00000000000039f8       0x84 ../ucosii_binary_game_hal_part1_bsp//libucosii_bsp.a(alt_open.o)
 .debug_frame   0x0000000000003a7c       0x34 ../ucosii_binary_game_hal_part1_bsp//libucosii_bsp.a(altera_nios2_gen2_irq.o)
 .debug_frame   0x0000000000003ab0      0x17c ../ucosii_binary_game_hal_part1_bsp//libucosii_bsp.a(os_cpu_c.o)
 .debug_frame   0x0000000000003c2c       0x38 ../ucosii_binary_game_hal_part1_bsp//libucosii_bsp.a(alt_find_file.o)
 .debug_frame   0x0000000000003c64       0x38 ../ucosii_binary_game_hal_part1_bsp//libucosii_bsp.a(alt_get_fd.o)
 .debug_frame   0x0000000000003c9c       0x34 ../ucosii_binary_game_hal_part1_bsp//libucosii_bsp.a(alt_icache_flush.o)
 .debug_frame   0x0000000000003cd0       0x38 ../ucosii_binary_game_hal_part1_bsp//libucosii_bsp.a(alt_irq_handler.o)
 .debug_frame   0x0000000000003d08       0x5c ../ucosii_binary_game_hal_part1_bsp//libucosii_bsp.a(alt_instruction_exception_entry.o)
 .debug_frame   0x0000000000003d64       0x20 /opt/intelFPGA/20.1.1/nios2eds/bin/gnu/H-x86_64-pc-linux-gnu/bin/../lib/gcc/nios2-elf/10.1.1/../../../../../H-x86_64-pc-linux-gnu/nios2-elf/lib/mhw-mulx/libc.a(lib_a-atexit.o)
 .debug_frame   0x0000000000003d84       0x28 /opt/intelFPGA/20.1.1/nios2eds/bin/gnu/H-x86_64-pc-linux-gnu/bin/../lib/gcc/nios2-elf/10.1.1/../../../../../H-x86_64-pc-linux-gnu/nios2-elf/lib/mhw-mulx/libc.a(lib_a-exit.o)
 .debug_frame   0x0000000000003dac       0x20 /opt/intelFPGA/20.1.1/nios2eds/bin/gnu/H-x86_64-pc-linux-gnu/bin/../lib/gcc/nios2-elf/10.1.1/../../../../../H-x86_64-pc-linux-gnu/nios2-elf/lib/mhw-mulx/libc.a(lib_a-memcmp.o)
 .debug_frame   0x0000000000003dcc       0x20 /opt/intelFPGA/20.1.1/nios2eds/bin/gnu/H-x86_64-pc-linux-gnu/bin/../lib/gcc/nios2-elf/10.1.1/../../../../../H-x86_64-pc-linux-gnu/nios2-elf/lib/mhw-mulx/libc.a(lib_a-__atexit.o)
 .debug_frame   0x0000000000003dec       0x54 /opt/intelFPGA/20.1.1/nios2eds/bin/gnu/H-x86_64-pc-linux-gnu/bin/../lib/gcc/nios2-elf/10.1.1/../../../../../H-x86_64-pc-linux-gnu/nios2-elf/lib/mhw-mulx/libc.a(lib_a-__call_atexit.o)

.debug_str      0x0000000000000000     0x5e8c
 *(.debug_str)
 .debug_str     0x0000000000000000       0x7b ../ucosii_binary_game_hal_part1_bsp//obj/HAL/src/crt0.o
 .debug_str     0x000000000000007b      0x4ce obj/default/hello_ucosii.o
                                        0x52e (size before relaxing)
 .debug_str     0x0000000000000549      0x15c /opt/intelFPGA/20.1.1/nios2eds/bin/gnu/H-x86_64-pc-linux-gnu/bin/../lib/gcc/nios2-elf/10.1.1/../../../../../H-x86_64-pc-linux-gnu/nios2-elf/lib/mhw-mulx/libc.a(lib_a-memcpy.o)
                                        0x1ff (size before relaxing)
 .debug_str     0x00000000000006a5      0x45a /opt/intelFPGA/20.1.1/nios2eds/bin/gnu/H-x86_64-pc-linux-gnu/bin/../lib/gcc/nios2-elf/10.1.1/../../../../../H-x86_64-pc-linux-gnu/nios2-elf/lib/mhw-mulx/libc.a(lib_a-printf.o)
                                        0x5f9 (size before relaxing)
 .debug_str     0x0000000000000aff       0xd2 /opt/intelFPGA/20.1.1/nios2eds/bin/gnu/H-x86_64-pc-linux-gnu/bin/../lib/gcc/nios2-elf/10.1.1/../../../../../H-x86_64-pc-linux-gnu/nios2-elf/lib/mhw-mulx/libc.a(lib_a-rand.o)
                                        0x5aa (size before relaxing)
 .debug_str     0x0000000000000bd1      0x10c /opt/intelFPGA/20.1.1/nios2eds/bin/gnu/H-x86_64-pc-linux-gnu/bin/../lib/gcc/nios2-elf/10.1.1/../../../../../H-x86_64-pc-linux-gnu/nios2-elf/lib/mhw-mulx/libc.a(lib_a-time.o)
                                        0x5ed (size before relaxing)
 .debug_str     0x0000000000000cdd      0x382 /opt/intelFPGA/20.1.1/nios2eds/bin/gnu/H-x86_64-pc-linux-gnu/bin/../lib/gcc/nios2-elf/10.1.1/../../../../../H-x86_64-pc-linux-gnu/nios2-elf/lib/mhw-mulx/libc.a(lib_a-vfprintf.o)
                                        0xa3e (size before relaxing)
 .debug_str     0x000000000000105f       0x53 /opt/intelFPGA/20.1.1/nios2eds/bin/gnu/H-x86_64-pc-linux-gnu/bin/../lib/gcc/nios2-elf/10.1.1/../../../../../H-x86_64-pc-linux-gnu/nios2-elf/lib/mhw-mulx/libc.a(lib_a-wsetup.o)
                                        0x5d2 (size before relaxing)
 .debug_str     0x00000000000010b2      0x1da /opt/intelFPGA/20.1.1/nios2eds/bin/gnu/H-x86_64-pc-linux-gnu/bin/../lib/gcc/nios2-elf/10.1.1/../../../../../H-x86_64-pc-linux-gnu/nios2-elf/lib/mhw-mulx/libc.a(lib_a-dtoa.o)
                                        0x96f (size before relaxing)
 .debug_str     0x000000000000128c       0x81 /opt/intelFPGA/20.1.1/nios2eds/bin/gnu/H-x86_64-pc-linux-gnu/bin/../lib/gcc/nios2-elf/10.1.1/../../../../../H-x86_64-pc-linux-gnu/nios2-elf/lib/mhw-mulx/libc.a(lib_a-fflush.o)
                                        0x613 (size before relaxing)
 .debug_str     0x000000000000130d      0x175 /opt/intelFPGA/20.1.1/nios2eds/bin/gnu/H-x86_64-pc-linux-gnu/bin/../lib/gcc/nios2-elf/10.1.1/../../../../../H-x86_64-pc-linux-gnu/nios2-elf/lib/mhw-mulx/libc.a(lib_a-findfp.o)
                                        0x718 (size before relaxing)
 .debug_str     0x0000000000001482      0x17d /opt/intelFPGA/20.1.1/nios2eds/bin/gnu/H-x86_64-pc-linux-gnu/bin/../lib/gcc/nios2-elf/10.1.1/../../../../../H-x86_64-pc-linux-gnu/nios2-elf/lib/mhw-mulx/libc.a(lib_a-freer.o)
                                        0x702 (size before relaxing)
 .debug_str     0x00000000000015ff       0x4c /opt/intelFPGA/20.1.1/nios2eds/bin/gnu/H-x86_64-pc-linux-gnu/bin/../lib/gcc/nios2-elf/10.1.1/../../../../../H-x86_64-pc-linux-gnu/nios2-elf/lib/mhw-mulx/libc.a(lib_a-fwalk.o)
                                        0x5b8 (size before relaxing)
 .debug_str     0x000000000000164b       0xf3 /opt/intelFPGA/20.1.1/nios2eds/bin/gnu/H-x86_64-pc-linux-gnu/bin/../lib/gcc/nios2-elf/10.1.1/../../../../../H-x86_64-pc-linux-gnu/nios2-elf/lib/mhw-mulx/libc.a(lib_a-gettimeofdayr.o)
                                        0x60d (size before relaxing)
 .debug_str     0x000000000000173e       0x4a /opt/intelFPGA/20.1.1/nios2eds/bin/gnu/H-x86_64-pc-linux-gnu/bin/../lib/gcc/nios2-elf/10.1.1/../../../../../H-x86_64-pc-linux-gnu/nios2-elf/lib/mhw-mulx/libc.a(lib_a-impure.o)
                                        0x5b3 (size before relaxing)
 .debug_str     0x0000000000001788       0x41 /opt/intelFPGA/20.1.1/nios2eds/bin/gnu/H-x86_64-pc-linux-gnu/bin/../lib/gcc/nios2-elf/10.1.1/../../../../../H-x86_64-pc-linux-gnu/nios2-elf/lib/mhw-mulx/libc.a(lib_a-int_errno.o)
                                        0x1d1 (size before relaxing)
 .debug_str     0x00000000000017c9      0x134 /opt/intelFPGA/20.1.1/nios2eds/bin/gnu/H-x86_64-pc-linux-gnu/bin/../lib/gcc/nios2-elf/10.1.1/../../../../../H-x86_64-pc-linux-gnu/nios2-elf/lib/mhw-mulx/libc.a(lib_a-localeconv.o)
                                        0x7e8 (size before relaxing)
 .debug_str     0x00000000000018fd      0x14e /opt/intelFPGA/20.1.1/nios2eds/bin/gnu/H-x86_64-pc-linux-gnu/bin/../lib/gcc/nios2-elf/10.1.1/../../../../../H-x86_64-pc-linux-gnu/nios2-elf/lib/mhw-mulx/libc.a(lib_a-makebuf.o)
                                        0x734 (size before relaxing)
 .debug_str     0x0000000000001a4b       0xe5 /opt/intelFPGA/20.1.1/nios2eds/bin/gnu/H-x86_64-pc-linux-gnu/bin/../lib/gcc/nios2-elf/10.1.1/../../../../../H-x86_64-pc-linux-gnu/nios2-elf/lib/mhw-mulx/libc.a(lib_a-mallocr.o)
                                        0x7b8 (size before relaxing)
 .debug_str     0x0000000000001b30       0x4d /opt/intelFPGA/20.1.1/nios2eds/bin/gnu/H-x86_64-pc-linux-gnu/bin/../lib/gcc/nios2-elf/10.1.1/../../../../../H-x86_64-pc-linux-gnu/nios2-elf/lib/mhw-mulx/libc.a(lib_a-memchr.o)
                                        0x1f2 (size before relaxing)
 .debug_str     0x0000000000001b7d       0x53 /opt/intelFPGA/20.1.1/nios2eds/bin/gnu/H-x86_64-pc-linux-gnu/bin/../lib/gcc/nios2-elf/10.1.1/../../../../../H-x86_64-pc-linux-gnu/nios2-elf/lib/mhw-mulx/libc.a(lib_a-memset.o)
                                        0x1ec (size before relaxing)
 .debug_str     0x0000000000001bd0       0xa9 /opt/intelFPGA/20.1.1/nios2eds/bin/gnu/H-x86_64-pc-linux-gnu/bin/../lib/gcc/nios2-elf/10.1.1/../../../../../H-x86_64-pc-linux-gnu/nios2-elf/lib/mhw-mulx/libc.a(lib_a-mprec.o)
                                        0x8e2 (size before relaxing)
 .debug_str     0x0000000000001c79       0x51 /opt/intelFPGA/20.1.1/nios2eds/bin/gnu/H-x86_64-pc-linux-gnu/bin/../lib/gcc/nios2-elf/10.1.1/../../../../../H-x86_64-pc-linux-gnu/nios2-elf/lib/mhw-mulx/libc.a(lib_a-sbrkr.o)
                                        0x5a9 (size before relaxing)
 .debug_str     0x0000000000001cca       0x9d /opt/intelFPGA/20.1.1/nios2eds/bin/gnu/H-x86_64-pc-linux-gnu/bin/../lib/gcc/nios2-elf/10.1.1/../../../../../H-x86_64-pc-linux-gnu/nios2-elf/lib/mhw-mulx/libc.a(lib_a-stdio.o)
                                        0x607 (size before relaxing)
 .debug_str     0x0000000000001d67       0x3f /opt/intelFPGA/20.1.1/nios2eds/bin/gnu/H-x86_64-pc-linux-gnu/bin/../lib/gcc/nios2-elf/10.1.1/../../../../../H-x86_64-pc-linux-gnu/nios2-elf/lib/mhw-mulx/libc.a(lib_a-strlen.o)
                                        0x1eb (size before relaxing)
 .debug_str     0x0000000000001da6       0x44 /opt/intelFPGA/20.1.1/nios2eds/bin/gnu/H-x86_64-pc-linux-gnu/bin/../lib/gcc/nios2-elf/10.1.1/../../../../../H-x86_64-pc-linux-gnu/nios2-elf/lib/mhw-mulx/libc.a(lib_a-vfiprintf.o)
                                        0x969 (size before relaxing)
 .debug_str     0x0000000000001dea       0x3e /opt/intelFPGA/20.1.1/nios2eds/bin/gnu/H-x86_64-pc-linux-gnu/bin/../lib/gcc/nios2-elf/10.1.1/../../../../../H-x86_64-pc-linux-gnu/nios2-elf/lib/mhw-mulx/libc.a(lib_a-writer.o)
                                        0x5ad (size before relaxing)
 .debug_str     0x0000000000001e28       0x3e /opt/intelFPGA/20.1.1/nios2eds/bin/gnu/H-x86_64-pc-linux-gnu/bin/../lib/gcc/nios2-elf/10.1.1/../../../../../H-x86_64-pc-linux-gnu/nios2-elf/lib/mhw-mulx/libc.a(closer.o)
                                        0x59d (size before relaxing)
 .debug_str     0x0000000000001e66       0x67 /opt/intelFPGA/20.1.1/nios2eds/bin/gnu/H-x86_64-pc-linux-gnu/bin/../lib/gcc/nios2-elf/10.1.1/../../../../../H-x86_64-pc-linux-gnu/nios2-elf/lib/mhw-mulx/libc.a(lib_a-assert.o)
                                        0x5d6 (size before relaxing)
 .debug_str     0x0000000000001ecd        0xf /opt/intelFPGA/20.1.1/nios2eds/bin/gnu/H-x86_64-pc-linux-gnu/bin/../lib/gcc/nios2-elf/10.1.1/../../../../../H-x86_64-pc-linux-gnu/nios2-elf/lib/mhw-mulx/libc.a(lib_a-callocr.o)
                                        0x5fd (size before relaxing)
 .debug_str     0x0000000000001edc       0x4f /opt/intelFPGA/20.1.1/nios2eds/bin/gnu/H-x86_64-pc-linux-gnu/bin/../lib/gcc/nios2-elf/10.1.1/../../../../../H-x86_64-pc-linux-gnu/nios2-elf/lib/mhw-mulx/libc.a(lib_a-fclose.o)
                                        0x600 (size before relaxing)
 .debug_str     0x0000000000001f2b       0x59 /opt/intelFPGA/20.1.1/nios2eds/bin/gnu/H-x86_64-pc-linux-gnu/bin/../lib/gcc/nios2-elf/10.1.1/../../../../../H-x86_64-pc-linux-gnu/nios2-elf/lib/mhw-mulx/libc.a(lib_a-fiprintf.o)
                                        0x5e6 (size before relaxing)
 .debug_str     0x0000000000001f84       0x70 /opt/intelFPGA/20.1.1/nios2eds/bin/gnu/H-x86_64-pc-linux-gnu/bin/../lib/gcc/nios2-elf/10.1.1/../../../../../H-x86_64-pc-linux-gnu/nios2-elf/lib/mhw-mulx/libc.a(lib_a-fputwc.o)
                                        0x609 (size before relaxing)
 .debug_str     0x0000000000001ff4       0x4a /opt/intelFPGA/20.1.1/nios2eds/bin/gnu/H-x86_64-pc-linux-gnu/bin/../lib/gcc/nios2-elf/10.1.1/../../../../../H-x86_64-pc-linux-gnu/nios2-elf/lib/mhw-mulx/libc.a(lib_a-fstatr.o)
                                        0x6e8 (size before relaxing)
 .debug_str     0x000000000000203e       0x70 /opt/intelFPGA/20.1.1/nios2eds/bin/gnu/H-x86_64-pc-linux-gnu/bin/../lib/gcc/nios2-elf/10.1.1/../../../../../H-x86_64-pc-linux-gnu/nios2-elf/lib/mhw-mulx/libc.a(lib_a-fvwrite.o)
                                        0x65f (size before relaxing)
 .debug_str     0x00000000000020ae       0x46 /opt/intelFPGA/20.1.1/nios2eds/bin/gnu/H-x86_64-pc-linux-gnu/bin/../lib/gcc/nios2-elf/10.1.1/../../../../../H-x86_64-pc-linux-gnu/nios2-elf/lib/mhw-mulx/libc.a(lib_a-isattyr.o)
                                        0x5a0 (size before relaxing)
 .debug_str     0x00000000000020f4       0x7b /opt/intelFPGA/20.1.1/nios2eds/bin/gnu/H-x86_64-pc-linux-gnu/bin/../lib/gcc/nios2-elf/10.1.1/../../../../../H-x86_64-pc-linux-gnu/nios2-elf/lib/mhw-mulx/libc.a(lib_a-locale.o)
                                        0x804 (size before relaxing)
 .debug_str     0x000000000000216f       0x44 /opt/intelFPGA/20.1.1/nios2eds/bin/gnu/H-x86_64-pc-linux-gnu/bin/../lib/gcc/nios2-elf/10.1.1/../../../../../H-x86_64-pc-linux-gnu/nios2-elf/lib/mhw-mulx/libc.a(lib_a-lseekr.o)
                                        0x5a4 (size before relaxing)
 .debug_str     0x00000000000021b3       0x60 /opt/intelFPGA/20.1.1/nios2eds/bin/gnu/H-x86_64-pc-linux-gnu/bin/../lib/gcc/nios2-elf/10.1.1/../../../../../H-x86_64-pc-linux-gnu/nios2-elf/lib/mhw-mulx/libc.a(lib_a-mbtowc_r.o)
                                        0x7c8 (size before relaxing)
 .debug_str     0x0000000000002213       0x49 /opt/intelFPGA/20.1.1/nios2eds/bin/gnu/H-x86_64-pc-linux-gnu/bin/../lib/gcc/nios2-elf/10.1.1/../../../../../H-x86_64-pc-linux-gnu/nios2-elf/lib/mhw-mulx/libc.a(lib_a-memmove.o)
                                        0x20b (size before relaxing)
 .debug_str     0x000000000000225c       0x3d /opt/intelFPGA/20.1.1/nios2eds/bin/gnu/H-x86_64-pc-linux-gnu/bin/../lib/gcc/nios2-elf/10.1.1/../../../../../H-x86_64-pc-linux-gnu/nios2-elf/lib/mhw-mulx/libc.a(lib_a-readr.o)
                                        0x5aa (size before relaxing)
 .debug_str     0x0000000000002299       0x49 /opt/intelFPGA/20.1.1/nios2eds/bin/gnu/H-x86_64-pc-linux-gnu/bin/../lib/gcc/nios2-elf/10.1.1/../../../../../H-x86_64-pc-linux-gnu/nios2-elf/lib/mhw-mulx/libc.a(lib_a-reallocr.o)
                                        0x694 (size before relaxing)
 .debug_str     0x00000000000022e2       0x3f /opt/intelFPGA/20.1.1/nios2eds/bin/gnu/H-x86_64-pc-linux-gnu/bin/../lib/gcc/nios2-elf/10.1.1/../../../../../H-x86_64-pc-linux-gnu/nios2-elf/lib/mhw-mulx/libc.a(lib_a-strcmp.o)
                                        0x1d1 (size before relaxing)
 .debug_str     0x0000000000002321       0x44 /opt/intelFPGA/20.1.1/nios2eds/bin/gnu/H-x86_64-pc-linux-gnu/bin/../lib/gcc/nios2-elf/10.1.1/../../../../../H-x86_64-pc-linux-gnu/nios2-elf/lib/mhw-mulx/libc.a(lib_a-vfiprintfr_1.o)
                                        0x5e6 (size before relaxing)
 .debug_str     0x0000000000002365       0x44 /opt/intelFPGA/20.1.1/nios2eds/bin/gnu/H-x86_64-pc-linux-gnu/bin/../lib/gcc/nios2-elf/10.1.1/../../../../../H-x86_64-pc-linux-gnu/nios2-elf/lib/mhw-mulx/libc.a(lib_a-wbuf.o)
                                        0x5d7 (size before relaxing)
 .debug_str     0x00000000000023a9       0x4f /opt/intelFPGA/20.1.1/nios2eds/bin/gnu/H-x86_64-pc-linux-gnu/bin/../lib/gcc/nios2-elf/10.1.1/../../../../../H-x86_64-pc-linux-gnu/nios2-elf/lib/mhw-mulx/libc.a(lib_a-wcrtomb.o)
                                        0x7ce (size before relaxing)
 .debug_str     0x00000000000023f8       0x61 /opt/intelFPGA/20.1.1/nios2eds/bin/gnu/H-x86_64-pc-linux-gnu/bin/../lib/gcc/nios2-elf/10.1.1/../../../../../H-x86_64-pc-linux-gnu/nios2-elf/lib/mhw-mulx/libc.a(lib_a-wctomb_r.o)
                                        0x7cf (size before relaxing)
 .debug_str     0x0000000000002459       0x44 /opt/intelFPGA/20.1.1/nios2eds/bin/gnu/H-x86_64-pc-linux-gnu/bin/../lib/gcc/nios2-elf/10.1.1/../../../../../H-x86_64-pc-linux-gnu/nios2-elf/lib/mhw-mulx/libc.a(lib_a-abort.o)
                                        0x1db (size before relaxing)
 .debug_str     0x000000000000249d       0xd4 /opt/intelFPGA/20.1.1/nios2eds/bin/gnu/H-x86_64-pc-linux-gnu/bin/../lib/gcc/nios2-elf/10.1.1/../../../../../H-x86_64-pc-linux-gnu/nios2-elf/lib/mhw-mulx/libc.a(lib_a-ctype_.o)
                                        0x1d9 (size before relaxing)
 .debug_str     0x0000000000002571      0x134 /opt/intelFPGA/20.1.1/nios2eds/bin/gnu/H-x86_64-pc-linux-gnu/bin/../lib/gcc/nios2-elf/10.1.1/../../../../../H-x86_64-pc-linux-gnu/nios2-elf/lib/mhw-mulx/libc.a(lib_a-signal.o)
                                        0x63a (size before relaxing)
 .debug_str     0x00000000000026a5       0x4b /opt/intelFPGA/20.1.1/nios2eds/bin/gnu/H-x86_64-pc-linux-gnu/bin/../lib/gcc/nios2-elf/10.1.1/../../../../../H-x86_64-pc-linux-gnu/nios2-elf/lib/mhw-mulx/libc.a(lib_a-signalr.o)
                                        0x5ad (size before relaxing)
 .debug_str     0x00000000000026f0      0x20e /opt/intelFPGA/20.1.1/nios2eds/bin/gnu/H-x86_64-pc-linux-gnu/bin/../lib/gcc/nios2-elf/10.1.1/mhw-mulx/libgcc.a(_udivdi3.o)
                                        0x2b7 (size before relaxing)
 .debug_str     0x00000000000028fe      0x2b7 /opt/intelFPGA/20.1.1/nios2eds/bin/gnu/H-x86_64-pc-linux-gnu/bin/../lib/gcc/nios2-elf/10.1.1/mhw-mulx/libgcc.a(_umoddi3.o)
 .debug_str     0x00000000000028fe       0xe4 /opt/intelFPGA/20.1.1/nios2eds/bin/gnu/H-x86_64-pc-linux-gnu/bin/../lib/gcc/nios2-elf/10.1.1/mhw-mulx/libgcc.a(lib2-divmod.o)
                                        0x1dd (size before relaxing)
 .debug_str     0x00000000000029e2      0x187 /opt/intelFPGA/20.1.1/nios2eds/bin/gnu/H-x86_64-pc-linux-gnu/bin/../lib/gcc/nios2-elf/10.1.1/mhw-mulx/libgcc.a(adddf3.o)
                                        0x328 (size before relaxing)
 .debug_str     0x0000000000002b69      0x195 /opt/intelFPGA/20.1.1/nios2eds/bin/gnu/H-x86_64-pc-linux-gnu/bin/../lib/gcc/nios2-elf/10.1.1/mhw-mulx/libgcc.a(divdf3.o)
                                        0x3fe (size before relaxing)
 .debug_str     0x0000000000002cfe       0x43 /opt/intelFPGA/20.1.1/nios2eds/bin/gnu/H-x86_64-pc-linux-gnu/bin/../lib/gcc/nios2-elf/10.1.1/mhw-mulx/libgcc.a(eqdf2.o)
                                        0x22b (size before relaxing)
 .debug_str     0x0000000000002d41       0x5e /opt/intelFPGA/20.1.1/nios2eds/bin/gnu/H-x86_64-pc-linux-gnu/bin/../lib/gcc/nios2-elf/10.1.1/mhw-mulx/libgcc.a(gedf2.o)
                                        0x24f (size before relaxing)
 .debug_str     0x0000000000002d9f       0x32 /opt/intelFPGA/20.1.1/nios2eds/bin/gnu/H-x86_64-pc-linux-gnu/bin/../lib/gcc/nios2-elf/10.1.1/mhw-mulx/libgcc.a(ledf2.o)
                                        0x24f (size before relaxing)
 .debug_str     0x0000000000002dd1      0x158 /opt/intelFPGA/20.1.1/nios2eds/bin/gnu/H-x86_64-pc-linux-gnu/bin/../lib/gcc/nios2-elf/10.1.1/mhw-mulx/libgcc.a(muldf3.o)
                                        0x442 (size before relaxing)
 .debug_str     0x0000000000002f29       0x33 /opt/intelFPGA/20.1.1/nios2eds/bin/gnu/H-x86_64-pc-linux-gnu/bin/../lib/gcc/nios2-elf/10.1.1/mhw-mulx/libgcc.a(subdf3.o)
                                        0x328 (size before relaxing)
 .debug_str     0x0000000000002f5c       0x35 /opt/intelFPGA/20.1.1/nios2eds/bin/gnu/H-x86_64-pc-linux-gnu/bin/../lib/gcc/nios2-elf/10.1.1/mhw-mulx/libgcc.a(unorddf2.o)
                                        0x231 (size before relaxing)
 .debug_str     0x0000000000002f91       0x47 /opt/intelFPGA/20.1.1/nios2eds/bin/gnu/H-x86_64-pc-linux-gnu/bin/../lib/gcc/nios2-elf/10.1.1/mhw-mulx/libgcc.a(fixdfsi.o)
                                        0x236 (size before relaxing)
 .debug_str     0x0000000000002fd8       0x63 /opt/intelFPGA/20.1.1/nios2eds/bin/gnu/H-x86_64-pc-linux-gnu/bin/../lib/gcc/nios2-elf/10.1.1/mhw-mulx/libgcc.a(floatsidf.o)
                                        0x2da (size before relaxing)
 .debug_str     0x000000000000303b       0x38 /opt/intelFPGA/20.1.1/nios2eds/bin/gnu/H-x86_64-pc-linux-gnu/bin/../lib/gcc/nios2-elf/10.1.1/mhw-mulx/libgcc.a(floatunsidf.o)
                                        0x2d7 (size before relaxing)
 .debug_str     0x0000000000003073      0x1ea /opt/intelFPGA/20.1.1/nios2eds/bin/gnu/H-x86_64-pc-linux-gnu/bin/../lib/gcc/nios2-elf/10.1.1/mhw-mulx/libgcc.a(_clz.o)
 .debug_str     0x0000000000003073      0x207 /opt/intelFPGA/20.1.1/nios2eds/bin/gnu/H-x86_64-pc-linux-gnu/bin/../lib/gcc/nios2-elf/10.1.1/mhw-mulx/libgcc.a(_clzsi2.o)
 .debug_str     0x0000000000003073       0x98 ../ucosii_binary_game_hal_part1_bsp//libucosii_bsp.a(alt_close.o)
                                        0x23c (size before relaxing)
 .debug_str     0x000000000000310b       0x6e ../ucosii_binary_game_hal_part1_bsp//libucosii_bsp.a(alt_dev.o)
                                        0x416 (size before relaxing)
 .debug_str     0x0000000000003179       0x14 ../ucosii_binary_game_hal_part1_bsp//libucosii_bsp.a(alt_errno.o)
                                        0x170 (size before relaxing)
 .debug_str     0x000000000000318d       0x3c ../ucosii_binary_game_hal_part1_bsp//libucosii_bsp.a(alt_exit.o)
                                        0x1a1 (size before relaxing)
 .debug_str     0x00000000000031c9       0x14 ../ucosii_binary_game_hal_part1_bsp//libucosii_bsp.a(alt_fstat.o)
                                        0x37c (size before relaxing)
 .debug_str     0x00000000000031dd       0x15 ../ucosii_binary_game_hal_part1_bsp//libucosii_bsp.a(alt_getpid.o)
                                         0xd9 (size before relaxing)
 .debug_str     0x00000000000031f2       0x99 ../ucosii_binary_game_hal_part1_bsp//libucosii_bsp.a(alt_gettod.o)
                                        0x278 (size before relaxing)
 .debug_str     0x000000000000328b       0x15 ../ucosii_binary_game_hal_part1_bsp//libucosii_bsp.a(alt_isatty.o)
                                        0x384 (size before relaxing)
 .debug_str     0x00000000000032a0       0x13 ../ucosii_binary_game_hal_part1_bsp//libucosii_bsp.a(alt_kill.o)
                                        0x18f (size before relaxing)
 .debug_str     0x00000000000032b3       0xe9 ../ucosii_binary_game_hal_part1_bsp//libucosii_bsp.a(alt_load.o)
                                        0x243 (size before relaxing)
 .debug_str     0x000000000000339c       0x14 ../ucosii_binary_game_hal_part1_bsp//libucosii_bsp.a(alt_lseek.o)
                                        0x24a (size before relaxing)
 .debug_str     0x00000000000033b0       0x5d ../ucosii_binary_game_hal_part1_bsp//libucosii_bsp.a(alt_main.o)
                                        0x23d (size before relaxing)
 .debug_str     0x000000000000340d       0x13 ../ucosii_binary_game_hal_part1_bsp//libucosii_bsp.a(alt_read.o)
                                        0x387 (size before relaxing)
 .debug_str     0x0000000000003420       0x28 ../ucosii_binary_game_hal_part1_bsp//libucosii_bsp.a(alt_release_fd.o)
                                        0x226 (size before relaxing)
 .debug_str     0x0000000000003448       0x82 ../ucosii_binary_game_hal_part1_bsp//libucosii_bsp.a(alt_sbrk.o)
                                        0x1ef (size before relaxing)
 .debug_str     0x00000000000034ca       0x78 ../ucosii_binary_game_hal_part1_bsp//libucosii_bsp.a(alt_tick.o)
                                        0x290 (size before relaxing)
 .debug_str     0x0000000000003542       0x14 ../ucosii_binary_game_hal_part1_bsp//libucosii_bsp.a(alt_write.o)
                                        0x388 (size before relaxing)
 .debug_str     0x0000000000003556      0x23d ../ucosii_binary_game_hal_part1_bsp//libucosii_bsp.a(alt_env_lock.o)
                                        0x7e0 (size before relaxing)
 .debug_str     0x0000000000003793       0x24 ../ucosii_binary_game_hal_part1_bsp//libucosii_bsp.a(alt_malloc_lock.o)
                                        0x842 (size before relaxing)
 .debug_str     0x00000000000037b7      0x4ed ../ucosii_binary_game_hal_part1_bsp//libucosii_bsp.a(os_core.o)
                                        0x964 (size before relaxing)
 .debug_str     0x0000000000003ca4      0x2e5 ../ucosii_binary_game_hal_part1_bsp//libucosii_bsp.a(os_dbg.o)
                                        0x45a (size before relaxing)
 .debug_str     0x0000000000003f89      0x136 ../ucosii_binary_game_hal_part1_bsp//libucosii_bsp.a(os_flag.o)
                                        0x600 (size before relaxing)
 .debug_str     0x00000000000040bf       0xcf ../ucosii_binary_game_hal_part1_bsp//libucosii_bsp.a(os_mem.o)
                                        0x309 (size before relaxing)
 .debug_str     0x000000000000418e       0xd0 ../ucosii_binary_game_hal_part1_bsp//libucosii_bsp.a(os_mutex.o)
                                        0x560 (size before relaxing)
 .debug_str     0x000000000000425e       0xb2 ../ucosii_binary_game_hal_part1_bsp//libucosii_bsp.a(os_q.o)
                                        0x583 (size before relaxing)
 .debug_str     0x0000000000004310       0x77 ../ucosii_binary_game_hal_part1_bsp//libucosii_bsp.a(os_sem.o)
                                        0x50c (size before relaxing)
 .debug_str     0x0000000000004387      0x113 ../ucosii_binary_game_hal_part1_bsp//libucosii_bsp.a(os_task.o)
                                        0x60f (size before relaxing)
 .debug_str     0x000000000000449a       0x5d ../ucosii_binary_game_hal_part1_bsp//libucosii_bsp.a(os_time.o)
                                        0x4af (size before relaxing)
 .debug_str     0x00000000000044f7      0x503 ../ucosii_binary_game_hal_part1_bsp//libucosii_bsp.a(alt_sys_init.o)
                                        0x839 (size before relaxing)
 .debug_str     0x00000000000049fa       0xac ../ucosii_binary_game_hal_part1_bsp//libucosii_bsp.a(altera_avalon_jtag_uart_fd.o)
                                        0x48b (size before relaxing)
 .debug_str     0x0000000000004aa6       0xe1 ../ucosii_binary_game_hal_part1_bsp//libucosii_bsp.a(altera_avalon_jtag_uart_init.o)
                                        0x473 (size before relaxing)
 .debug_str     0x0000000000004b87       0x4a ../ucosii_binary_game_hal_part1_bsp//libucosii_bsp.a(altera_avalon_jtag_uart_ioctl.o)
                                        0x37a (size before relaxing)
 .debug_str     0x0000000000004bd1       0x63 ../ucosii_binary_game_hal_part1_bsp//libucosii_bsp.a(altera_avalon_jtag_uart_read.o)
                                        0x3ff (size before relaxing)
 .debug_str     0x0000000000004c34       0x4a ../ucosii_binary_game_hal_part1_bsp//libucosii_bsp.a(altera_avalon_jtag_uart_write.o)
                                        0x400 (size before relaxing)
 .debug_str     0x0000000000004c7e       0x6b ../ucosii_binary_game_hal_part1_bsp//libucosii_bsp.a(altera_avalon_timer_sc.o)
                                        0x23f (size before relaxing)
 .debug_str     0x0000000000004ce9      0x1ea ../ucosii_binary_game_hal_part1_bsp//libucosii_bsp.a(altera_up_avalon_character_lcd.o)
                                        0x40c (size before relaxing)
 .debug_str     0x0000000000004ed3      0x176 ../ucosii_binary_game_hal_part1_bsp//libucosii_bsp.a(altera_up_avalon_irda.o)
                                        0x39d (size before relaxing)
 .debug_str     0x0000000000005049      0x1c5 ../ucosii_binary_game_hal_part1_bsp//libucosii_bsp.a(altera_up_avalon_ps2.o)
                                        0x470 (size before relaxing)
 .debug_str     0x000000000000520e      0x154 ../ucosii_binary_game_hal_part1_bsp//libucosii_bsp.a(altera_up_avalon_rs232.o)
                                        0x3aa (size before relaxing)
 .debug_str     0x0000000000005362       0x4a ../ucosii_binary_game_hal_part1_bsp//libucosii_bsp.a(alt_alarm_start.o)
                                        0x2af (size before relaxing)
 .debug_str     0x00000000000053ac       0x34 ../ucosii_binary_game_hal_part1_bsp//libucosii_bsp.a(alt_dcache_flush_all.o)
                                        0x186 (size before relaxing)
 .debug_str     0x00000000000053e0       0x34 ../ucosii_binary_game_hal_part1_bsp//libucosii_bsp.a(alt_dev_llist_insert.o)
                                        0x1fd (size before relaxing)
 .debug_str     0x0000000000005414       0x48 ../ucosii_binary_game_hal_part1_bsp//libucosii_bsp.a(alt_do_ctors.o)
                                        0x10a (size before relaxing)
 .debug_str     0x000000000000545c       0x4c ../ucosii_binary_game_hal_part1_bsp//libucosii_bsp.a(alt_do_dtors.o)
                                        0x109 (size before relaxing)
 .debug_str     0x00000000000054a8       0x24 ../ucosii_binary_game_hal_part1_bsp//libucosii_bsp.a(alt_find_dev.o)
                                        0x21d (size before relaxing)
 .debug_str     0x00000000000054cc       0x34 ../ucosii_binary_game_hal_part1_bsp//libucosii_bsp.a(alt_icache_flush_all.o)
                                        0x186 (size before relaxing)
 .debug_str     0x0000000000005500       0x56 ../ucosii_binary_game_hal_part1_bsp//libucosii_bsp.a(alt_io_redirect.o)
                                        0x3a6 (size before relaxing)
 .debug_str     0x0000000000005556       0x7f ../ucosii_binary_game_hal_part1_bsp//libucosii_bsp.a(alt_irq_register.o)
                                        0x234 (size before relaxing)
 .debug_str     0x00000000000055d5       0x29 ../ucosii_binary_game_hal_part1_bsp//libucosii_bsp.a(alt_irq_vars.o)
                                        0x174 (size before relaxing)
 .debug_str     0x00000000000055fe       0x29 ../ucosii_binary_game_hal_part1_bsp//libucosii_bsp.a(alt_open.o)
                                        0x289 (size before relaxing)
 .debug_str     0x0000000000005627       0x3b ../ucosii_binary_game_hal_part1_bsp//libucosii_bsp.a(altera_nios2_gen2_irq.o)
                                        0x18d (size before relaxing)
 .debug_str     0x0000000000005662       0x13 ../ucosii_binary_game_hal_part1_bsp//libucosii_bsp.a(os_cpu_a.o)
                                         0x7f (size before relaxing)
 .debug_str     0x0000000000005675       0xd5 ../ucosii_binary_game_hal_part1_bsp//libucosii_bsp.a(os_cpu_c.o)
                                        0x85d (size before relaxing)
 .debug_str     0x000000000000574a       0x26 ../ucosii_binary_game_hal_part1_bsp//libucosii_bsp.a(alt_find_file.o)
                                        0x22b (size before relaxing)
 .debug_str     0x0000000000005770       0x30 ../ucosii_binary_game_hal_part1_bsp//libucosii_bsp.a(alt_get_fd.o)
                                        0x2c9 (size before relaxing)
 .debug_str     0x00000000000057a0       0x2c ../ucosii_binary_game_hal_part1_bsp//libucosii_bsp.a(alt_icache_flush.o)
                                        0x18c (size before relaxing)
 .debug_str     0x00000000000057cc       0x18 ../ucosii_binary_game_hal_part1_bsp//libucosii_bsp.a(alt_irq_entry.o)
                                         0x84 (size before relaxing)
 .debug_str     0x00000000000057e4       0x3a ../ucosii_binary_game_hal_part1_bsp//libucosii_bsp.a(alt_irq_handler.o)
                                        0x1d5 (size before relaxing)
 .debug_str     0x000000000000581e       0x1e ../ucosii_binary_game_hal_part1_bsp//libucosii_bsp.a(alt_exception_entry.o)
                                         0x8a (size before relaxing)
 .debug_str     0x000000000000583c      0x48b ../ucosii_binary_game_hal_part1_bsp//libucosii_bsp.a(alt_instruction_exception_entry.o)
                                        0x5da (size before relaxing)
 .debug_str     0x0000000000005cc7       0x83 /opt/intelFPGA/20.1.1/nios2eds/bin/gnu/H-x86_64-pc-linux-gnu/bin/../lib/gcc/nios2-elf/10.1.1/../../../../../H-x86_64-pc-linux-gnu/nios2-elf/lib/mhw-mulx/libc.a(lib_a-atexit.o)
                                        0x215 (size before relaxing)
 .debug_str     0x0000000000005d4a       0x4e /opt/intelFPGA/20.1.1/nios2eds/bin/gnu/H-x86_64-pc-linux-gnu/bin/../lib/gcc/nios2-elf/10.1.1/../../../../../H-x86_64-pc-linux-gnu/nios2-elf/lib/mhw-mulx/libc.a(lib_a-exit.o)
                                        0x5bc (size before relaxing)
 .debug_str     0x0000000000005d98       0x46 /opt/intelFPGA/20.1.1/nios2eds/bin/gnu/H-x86_64-pc-linux-gnu/bin/../lib/gcc/nios2-elf/10.1.1/../../../../../H-x86_64-pc-linux-gnu/nios2-elf/lib/mhw-mulx/libc.a(lib_a-memcmp.o)
                                        0x1d8 (size before relaxing)
 .debug_str     0x0000000000005dde       0x41 /opt/intelFPGA/20.1.1/nios2eds/bin/gnu/H-x86_64-pc-linux-gnu/bin/../lib/gcc/nios2-elf/10.1.1/../../../../../H-x86_64-pc-linux-gnu/nios2-elf/lib/mhw-mulx/libc.a(lib_a-__atexit.o)
                                        0x5ed (size before relaxing)
 .debug_str     0x0000000000005e1f       0x6d /opt/intelFPGA/20.1.1/nios2eds/bin/gnu/H-x86_64-pc-linux-gnu/bin/../lib/gcc/nios2-elf/10.1.1/../../../../../H-x86_64-pc-linux-gnu/nios2-elf/lib/mhw-mulx/libc.a(lib_a-__call_atexit.o)
                                        0x5e6 (size before relaxing)

.debug_loc      0x0000000000000000    0x1dedd
 *(.debug_loc)
 .debug_loc     0x0000000000000000      0x347 /opt/intelFPGA/20.1.1/nios2eds/bin/gnu/H-x86_64-pc-linux-gnu/bin/../lib/gcc/nios2-elf/10.1.1/../../../../../H-x86_64-pc-linux-gnu/nios2-elf/lib/mhw-mulx/libc.a(lib_a-memcpy.o)
 .debug_loc     0x0000000000000347       0xe1 /opt/intelFPGA/20.1.1/nios2eds/bin/gnu/H-x86_64-pc-linux-gnu/bin/../lib/gcc/nios2-elf/10.1.1/../../../../../H-x86_64-pc-linux-gnu/nios2-elf/lib/mhw-mulx/libc.a(lib_a-printf.o)
 .debug_loc     0x0000000000000428       0x15 /opt/intelFPGA/20.1.1/nios2eds/bin/gnu/H-x86_64-pc-linux-gnu/bin/../lib/gcc/nios2-elf/10.1.1/../../../../../H-x86_64-pc-linux-gnu/nios2-elf/lib/mhw-mulx/libc.a(lib_a-rand.o)
 .debug_loc     0x000000000000043d       0x3f /opt/intelFPGA/20.1.1/nios2eds/bin/gnu/H-x86_64-pc-linux-gnu/bin/../lib/gcc/nios2-elf/10.1.1/../../../../../H-x86_64-pc-linux-gnu/nios2-elf/lib/mhw-mulx/libc.a(lib_a-time.o)
 .debug_loc     0x000000000000047c     0x3bb1 /opt/intelFPGA/20.1.1/nios2eds/bin/gnu/H-x86_64-pc-linux-gnu/bin/../lib/gcc/nios2-elf/10.1.1/../../../../../H-x86_64-pc-linux-gnu/nios2-elf/lib/mhw-mulx/libc.a(lib_a-vfprintf.o)
 .debug_loc     0x000000000000402d       0xd4 /opt/intelFPGA/20.1.1/nios2eds/bin/gnu/H-x86_64-pc-linux-gnu/bin/../lib/gcc/nios2-elf/10.1.1/../../../../../H-x86_64-pc-linux-gnu/nios2-elf/lib/mhw-mulx/libc.a(lib_a-wsetup.o)
 .debug_loc     0x0000000000004101     0x3061 /opt/intelFPGA/20.1.1/nios2eds/bin/gnu/H-x86_64-pc-linux-gnu/bin/../lib/gcc/nios2-elf/10.1.1/../../../../../H-x86_64-pc-linux-gnu/nios2-elf/lib/mhw-mulx/libc.a(lib_a-dtoa.o)
 .debug_loc     0x0000000000007162      0x4c6 /opt/intelFPGA/20.1.1/nios2eds/bin/gnu/H-x86_64-pc-linux-gnu/bin/../lib/gcc/nios2-elf/10.1.1/../../../../../H-x86_64-pc-linux-gnu/nios2-elf/lib/mhw-mulx/libc.a(lib_a-fflush.o)
 .debug_loc     0x0000000000007628      0x32c /opt/intelFPGA/20.1.1/nios2eds/bin/gnu/H-x86_64-pc-linux-gnu/bin/../lib/gcc/nios2-elf/10.1.1/../../../../../H-x86_64-pc-linux-gnu/nios2-elf/lib/mhw-mulx/libc.a(lib_a-findfp.o)
 .debug_loc     0x0000000000007954      0x614 /opt/intelFPGA/20.1.1/nios2eds/bin/gnu/H-x86_64-pc-linux-gnu/bin/../lib/gcc/nios2-elf/10.1.1/../../../../../H-x86_64-pc-linux-gnu/nios2-elf/lib/mhw-mulx/libc.a(lib_a-freer.o)
 .debug_loc     0x0000000000007f68      0x1eb /opt/intelFPGA/20.1.1/nios2eds/bin/gnu/H-x86_64-pc-linux-gnu/bin/../lib/gcc/nios2-elf/10.1.1/../../../../../H-x86_64-pc-linux-gnu/nios2-elf/lib/mhw-mulx/libc.a(lib_a-fwalk.o)
 .debug_loc     0x0000000000008153       0xbb /opt/intelFPGA/20.1.1/nios2eds/bin/gnu/H-x86_64-pc-linux-gnu/bin/../lib/gcc/nios2-elf/10.1.1/../../../../../H-x86_64-pc-linux-gnu/nios2-elf/lib/mhw-mulx/libc.a(lib_a-gettimeofdayr.o)
 .debug_loc     0x000000000000820e       0x25 /opt/intelFPGA/20.1.1/nios2eds/bin/gnu/H-x86_64-pc-linux-gnu/bin/../lib/gcc/nios2-elf/10.1.1/../../../../../H-x86_64-pc-linux-gnu/nios2-elf/lib/mhw-mulx/libc.a(lib_a-localeconv.o)
 .debug_loc     0x0000000000008233      0x449 /opt/intelFPGA/20.1.1/nios2eds/bin/gnu/H-x86_64-pc-linux-gnu/bin/../lib/gcc/nios2-elf/10.1.1/../../../../../H-x86_64-pc-linux-gnu/nios2-elf/lib/mhw-mulx/libc.a(lib_a-makebuf.o)
 .debug_loc     0x000000000000867c      0xd34 /opt/intelFPGA/20.1.1/nios2eds/bin/gnu/H-x86_64-pc-linux-gnu/bin/../lib/gcc/nios2-elf/10.1.1/../../../../../H-x86_64-pc-linux-gnu/nios2-elf/lib/mhw-mulx/libc.a(lib_a-mallocr.o)
 .debug_loc     0x00000000000093b0      0x240 /opt/intelFPGA/20.1.1/nios2eds/bin/gnu/H-x86_64-pc-linux-gnu/bin/../lib/gcc/nios2-elf/10.1.1/../../../../../H-x86_64-pc-linux-gnu/nios2-elf/lib/mhw-mulx/libc.a(lib_a-memchr.o)
 .debug_loc     0x00000000000095f0      0x1b5 /opt/intelFPGA/20.1.1/nios2eds/bin/gnu/H-x86_64-pc-linux-gnu/bin/../lib/gcc/nios2-elf/10.1.1/../../../../../H-x86_64-pc-linux-gnu/nios2-elf/lib/mhw-mulx/libc.a(lib_a-memset.o)
 .debug_loc     0x00000000000097a5     0x24b5 /opt/intelFPGA/20.1.1/nios2eds/bin/gnu/H-x86_64-pc-linux-gnu/bin/../lib/gcc/nios2-elf/10.1.1/../../../../../H-x86_64-pc-linux-gnu/nios2-elf/lib/mhw-mulx/libc.a(lib_a-mprec.o)
 .debug_loc     0x000000000000bc5a       0x89 /opt/intelFPGA/20.1.1/nios2eds/bin/gnu/H-x86_64-pc-linux-gnu/bin/../lib/gcc/nios2-elf/10.1.1/../../../../../H-x86_64-pc-linux-gnu/nios2-elf/lib/mhw-mulx/libc.a(lib_a-sbrkr.o)
 .debug_loc     0x000000000000bce3      0x43c /opt/intelFPGA/20.1.1/nios2eds/bin/gnu/H-x86_64-pc-linux-gnu/bin/../lib/gcc/nios2-elf/10.1.1/../../../../../H-x86_64-pc-linux-gnu/nios2-elf/lib/mhw-mulx/libc.a(lib_a-stdio.o)
 .debug_loc     0x000000000000c11f       0x73 /opt/intelFPGA/20.1.1/nios2eds/bin/gnu/H-x86_64-pc-linux-gnu/bin/../lib/gcc/nios2-elf/10.1.1/../../../../../H-x86_64-pc-linux-gnu/nios2-elf/lib/mhw-mulx/libc.a(lib_a-strlen.o)
 .debug_loc     0x000000000000c192     0x2b13 /opt/intelFPGA/20.1.1/nios2eds/bin/gnu/H-x86_64-pc-linux-gnu/bin/../lib/gcc/nios2-elf/10.1.1/../../../../../H-x86_64-pc-linux-gnu/nios2-elf/lib/mhw-mulx/libc.a(lib_a-vfiprintf.o)
 .debug_loc     0x000000000000eca5       0xed /opt/intelFPGA/20.1.1/nios2eds/bin/gnu/H-x86_64-pc-linux-gnu/bin/../lib/gcc/nios2-elf/10.1.1/../../../../../H-x86_64-pc-linux-gnu/nios2-elf/lib/mhw-mulx/libc.a(lib_a-writer.o)
 .debug_loc     0x000000000000ed92       0x89 /opt/intelFPGA/20.1.1/nios2eds/bin/gnu/H-x86_64-pc-linux-gnu/bin/../lib/gcc/nios2-elf/10.1.1/../../../../../H-x86_64-pc-linux-gnu/nios2-elf/lib/mhw-mulx/libc.a(closer.o)
 .debug_loc     0x000000000000ee1b      0x1a2 /opt/intelFPGA/20.1.1/nios2eds/bin/gnu/H-x86_64-pc-linux-gnu/bin/../lib/gcc/nios2-elf/10.1.1/../../../../../H-x86_64-pc-linux-gnu/nios2-elf/lib/mhw-mulx/libc.a(lib_a-assert.o)
 .debug_loc     0x000000000000efbd      0x317 /opt/intelFPGA/20.1.1/nios2eds/bin/gnu/H-x86_64-pc-linux-gnu/bin/../lib/gcc/nios2-elf/10.1.1/../../../../../H-x86_64-pc-linux-gnu/nios2-elf/lib/mhw-mulx/libc.a(lib_a-callocr.o)
 .debug_loc     0x000000000000f2d4      0x2fc /opt/intelFPGA/20.1.1/nios2eds/bin/gnu/H-x86_64-pc-linux-gnu/bin/../lib/gcc/nios2-elf/10.1.1/../../../../../H-x86_64-pc-linux-gnu/nios2-elf/lib/mhw-mulx/libc.a(lib_a-fclose.o)
 .debug_loc     0x000000000000f5d0      0x12b /opt/intelFPGA/20.1.1/nios2eds/bin/gnu/H-x86_64-pc-linux-gnu/bin/../lib/gcc/nios2-elf/10.1.1/../../../../../H-x86_64-pc-linux-gnu/nios2-elf/lib/mhw-mulx/libc.a(lib_a-fiprintf.o)
 .debug_loc     0x000000000000f6fb      0x2eb /opt/intelFPGA/20.1.1/nios2eds/bin/gnu/H-x86_64-pc-linux-gnu/bin/../lib/gcc/nios2-elf/10.1.1/../../../../../H-x86_64-pc-linux-gnu/nios2-elf/lib/mhw-mulx/libc.a(lib_a-fputwc.o)
 .debug_loc     0x000000000000f9e6       0xbb /opt/intelFPGA/20.1.1/nios2eds/bin/gnu/H-x86_64-pc-linux-gnu/bin/../lib/gcc/nios2-elf/10.1.1/../../../../../H-x86_64-pc-linux-gnu/nios2-elf/lib/mhw-mulx/libc.a(lib_a-fstatr.o)
 .debug_loc     0x000000000000faa1      0x75a /opt/intelFPGA/20.1.1/nios2eds/bin/gnu/H-x86_64-pc-linux-gnu/bin/../lib/gcc/nios2-elf/10.1.1/../../../../../H-x86_64-pc-linux-gnu/nios2-elf/lib/mhw-mulx/libc.a(lib_a-fvwrite.o)
 .debug_loc     0x00000000000101fb       0x89 /opt/intelFPGA/20.1.1/nios2eds/bin/gnu/H-x86_64-pc-linux-gnu/bin/../lib/gcc/nios2-elf/10.1.1/../../../../../H-x86_64-pc-linux-gnu/nios2-elf/lib/mhw-mulx/libc.a(lib_a-isattyr.o)
 .debug_loc     0x0000000000010284      0x2f1 /opt/intelFPGA/20.1.1/nios2eds/bin/gnu/H-x86_64-pc-linux-gnu/bin/../lib/gcc/nios2-elf/10.1.1/../../../../../H-x86_64-pc-linux-gnu/nios2-elf/lib/mhw-mulx/libc.a(lib_a-locale.o)
 .debug_loc     0x0000000000010575       0xed /opt/intelFPGA/20.1.1/nios2eds/bin/gnu/H-x86_64-pc-linux-gnu/bin/../lib/gcc/nios2-elf/10.1.1/../../../../../H-x86_64-pc-linux-gnu/nios2-elf/lib/mhw-mulx/libc.a(lib_a-lseekr.o)
 .debug_loc     0x0000000000010662      0x119 /opt/intelFPGA/20.1.1/nios2eds/bin/gnu/H-x86_64-pc-linux-gnu/bin/../lib/gcc/nios2-elf/10.1.1/../../../../../H-x86_64-pc-linux-gnu/nios2-elf/lib/mhw-mulx/libc.a(lib_a-mbtowc_r.o)
 .debug_loc     0x000000000001077b      0x3ff /opt/intelFPGA/20.1.1/nios2eds/bin/gnu/H-x86_64-pc-linux-gnu/bin/../lib/gcc/nios2-elf/10.1.1/../../../../../H-x86_64-pc-linux-gnu/nios2-elf/lib/mhw-mulx/libc.a(lib_a-memmove.o)
 .debug_loc     0x0000000000010b7a       0xed /opt/intelFPGA/20.1.1/nios2eds/bin/gnu/H-x86_64-pc-linux-gnu/bin/../lib/gcc/nios2-elf/10.1.1/../../../../../H-x86_64-pc-linux-gnu/nios2-elf/lib/mhw-mulx/libc.a(lib_a-readr.o)
 .debug_loc     0x0000000000010c67     0x11ff /opt/intelFPGA/20.1.1/nios2eds/bin/gnu/H-x86_64-pc-linux-gnu/bin/../lib/gcc/nios2-elf/10.1.1/../../../../../H-x86_64-pc-linux-gnu/nios2-elf/lib/mhw-mulx/libc.a(lib_a-reallocr.o)
 .debug_loc     0x0000000000011e66       0x8e /opt/intelFPGA/20.1.1/nios2eds/bin/gnu/H-x86_64-pc-linux-gnu/bin/../lib/gcc/nios2-elf/10.1.1/../../../../../H-x86_64-pc-linux-gnu/nios2-elf/lib/mhw-mulx/libc.a(lib_a-strcmp.o)
 .debug_loc     0x0000000000011ef4       0x94 /opt/intelFPGA/20.1.1/nios2eds/bin/gnu/H-x86_64-pc-linux-gnu/bin/../lib/gcc/nios2-elf/10.1.1/../../../../../H-x86_64-pc-linux-gnu/nios2-elf/lib/mhw-mulx/libc.a(lib_a-vfiprintfr_1.o)
 .debug_loc     0x0000000000011f88      0x201 /opt/intelFPGA/20.1.1/nios2eds/bin/gnu/H-x86_64-pc-linux-gnu/bin/../lib/gcc/nios2-elf/10.1.1/../../../../../H-x86_64-pc-linux-gnu/nios2-elf/lib/mhw-mulx/libc.a(lib_a-wbuf.o)
 .debug_loc     0x0000000000012189      0x2a4 /opt/intelFPGA/20.1.1/nios2eds/bin/gnu/H-x86_64-pc-linux-gnu/bin/../lib/gcc/nios2-elf/10.1.1/../../../../../H-x86_64-pc-linux-gnu/nios2-elf/lib/mhw-mulx/libc.a(lib_a-wcrtomb.o)
 .debug_loc     0x000000000001242d       0xa9 /opt/intelFPGA/20.1.1/nios2eds/bin/gnu/H-x86_64-pc-linux-gnu/bin/../lib/gcc/nios2-elf/10.1.1/../../../../../H-x86_64-pc-linux-gnu/nios2-elf/lib/mhw-mulx/libc.a(lib_a-wctomb_r.o)
 .debug_loc     0x00000000000124d6      0x8e7 /opt/intelFPGA/20.1.1/nios2eds/bin/gnu/H-x86_64-pc-linux-gnu/bin/../lib/gcc/nios2-elf/10.1.1/../../../../../H-x86_64-pc-linux-gnu/nios2-elf/lib/mhw-mulx/libc.a(lib_a-signal.o)
 .debug_loc     0x0000000000012dbd       0xe0 /opt/intelFPGA/20.1.1/nios2eds/bin/gnu/H-x86_64-pc-linux-gnu/bin/../lib/gcc/nios2-elf/10.1.1/../../../../../H-x86_64-pc-linux-gnu/nios2-elf/lib/mhw-mulx/libc.a(lib_a-signalr.o)
 .debug_loc     0x0000000000012e9d     0x14a5 /opt/intelFPGA/20.1.1/nios2eds/bin/gnu/H-x86_64-pc-linux-gnu/bin/../lib/gcc/nios2-elf/10.1.1/mhw-mulx/libgcc.a(_udivdi3.o)
 .debug_loc     0x0000000000014342     0x1185 /opt/intelFPGA/20.1.1/nios2eds/bin/gnu/H-x86_64-pc-linux-gnu/bin/../lib/gcc/nios2-elf/10.1.1/mhw-mulx/libgcc.a(_umoddi3.o)
 .debug_loc     0x00000000000154c7      0x5d0 /opt/intelFPGA/20.1.1/nios2eds/bin/gnu/H-x86_64-pc-linux-gnu/bin/../lib/gcc/nios2-elf/10.1.1/mhw-mulx/libgcc.a(lib2-divmod.o)
 .debug_loc     0x0000000000015a97     0x1f4b /opt/intelFPGA/20.1.1/nios2eds/bin/gnu/H-x86_64-pc-linux-gnu/bin/../lib/gcc/nios2-elf/10.1.1/mhw-mulx/libgcc.a(adddf3.o)
 .debug_loc     0x00000000000179e2     0x23bc /opt/intelFPGA/20.1.1/nios2eds/bin/gnu/H-x86_64-pc-linux-gnu/bin/../lib/gcc/nios2-elf/10.1.1/mhw-mulx/libgcc.a(divdf3.o)
 .debug_loc     0x0000000000019d9e      0x113 /opt/intelFPGA/20.1.1/nios2eds/bin/gnu/H-x86_64-pc-linux-gnu/bin/../lib/gcc/nios2-elf/10.1.1/mhw-mulx/libgcc.a(eqdf2.o)
 .debug_loc     0x0000000000019eb1      0x185 /opt/intelFPGA/20.1.1/nios2eds/bin/gnu/H-x86_64-pc-linux-gnu/bin/../lib/gcc/nios2-elf/10.1.1/mhw-mulx/libgcc.a(gedf2.o)
 .debug_loc     0x000000000001a036      0x177 /opt/intelFPGA/20.1.1/nios2eds/bin/gnu/H-x86_64-pc-linux-gnu/bin/../lib/gcc/nios2-elf/10.1.1/mhw-mulx/libgcc.a(ledf2.o)
 .debug_loc     0x000000000001a1ad     0x12d0 /opt/intelFPGA/20.1.1/nios2eds/bin/gnu/H-x86_64-pc-linux-gnu/bin/../lib/gcc/nios2-elf/10.1.1/mhw-mulx/libgcc.a(muldf3.o)
 .debug_loc     0x000000000001b47d     0x1e52 /opt/intelFPGA/20.1.1/nios2eds/bin/gnu/H-x86_64-pc-linux-gnu/bin/../lib/gcc/nios2-elf/10.1.1/mhw-mulx/libgcc.a(subdf3.o)
 .debug_loc     0x000000000001d2cf       0x9e /opt/intelFPGA/20.1.1/nios2eds/bin/gnu/H-x86_64-pc-linux-gnu/bin/../lib/gcc/nios2-elf/10.1.1/mhw-mulx/libgcc.a(unorddf2.o)
 .debug_loc     0x000000000001d36d      0x1bf /opt/intelFPGA/20.1.1/nios2eds/bin/gnu/H-x86_64-pc-linux-gnu/bin/../lib/gcc/nios2-elf/10.1.1/mhw-mulx/libgcc.a(fixdfsi.o)
 .debug_loc     0x000000000001d52c      0x239 /opt/intelFPGA/20.1.1/nios2eds/bin/gnu/H-x86_64-pc-linux-gnu/bin/../lib/gcc/nios2-elf/10.1.1/mhw-mulx/libgcc.a(floatsidf.o)
 .debug_loc     0x000000000001d765      0x24d /opt/intelFPGA/20.1.1/nios2eds/bin/gnu/H-x86_64-pc-linux-gnu/bin/../lib/gcc/nios2-elf/10.1.1/mhw-mulx/libgcc.a(floatunsidf.o)
 .debug_loc     0x000000000001d9b2       0xbe /opt/intelFPGA/20.1.1/nios2eds/bin/gnu/H-x86_64-pc-linux-gnu/bin/../lib/gcc/nios2-elf/10.1.1/mhw-mulx/libgcc.a(_clzsi2.o)
 .debug_loc     0x000000000001da70       0x32 /opt/intelFPGA/20.1.1/nios2eds/bin/gnu/H-x86_64-pc-linux-gnu/bin/../lib/gcc/nios2-elf/10.1.1/../../../../../H-x86_64-pc-linux-gnu/nios2-elf/lib/mhw-mulx/libc.a(lib_a-atexit.o)
 .debug_loc     0x000000000001daa2       0x22 /opt/intelFPGA/20.1.1/nios2eds/bin/gnu/H-x86_64-pc-linux-gnu/bin/../lib/gcc/nios2-elf/10.1.1/../../../../../H-x86_64-pc-linux-gnu/nios2-elf/lib/mhw-mulx/libc.a(lib_a-exit.o)
 .debug_loc     0x000000000001dac4      0x158 /opt/intelFPGA/20.1.1/nios2eds/bin/gnu/H-x86_64-pc-linux-gnu/bin/../lib/gcc/nios2-elf/10.1.1/../../../../../H-x86_64-pc-linux-gnu/nios2-elf/lib/mhw-mulx/libc.a(lib_a-memcmp.o)
 .debug_loc     0x000000000001dc1c       0xf7 /opt/intelFPGA/20.1.1/nios2eds/bin/gnu/H-x86_64-pc-linux-gnu/bin/../lib/gcc/nios2-elf/10.1.1/../../../../../H-x86_64-pc-linux-gnu/nios2-elf/lib/mhw-mulx/libc.a(lib_a-__atexit.o)
 .debug_loc     0x000000000001dd13      0x1ca /opt/intelFPGA/20.1.1/nios2eds/bin/gnu/H-x86_64-pc-linux-gnu/bin/../lib/gcc/nios2-elf/10.1.1/../../../../../H-x86_64-pc-linux-gnu/nios2-elf/lib/mhw-mulx/libc.a(lib_a-__call_atexit.o)

.debug_macinfo
 *(.debug_macinfo)

.debug_weaknames
 *(.debug_weaknames)

.debug_funcnames
 *(.debug_funcnames)

.debug_typenames
 *(.debug_typenames)

.debug_varnames
 *(.debug_varnames)

.debug_alt_sim_info
                0x0000000000000000       0x20
 *(.debug_alt_sim_info)
 .debug_alt_sim_info
                0x0000000000000000       0x20 ../ucosii_binary_game_hal_part1_bsp//obj/HAL/src/crt0.o
                0x0000000004000000                __alt_data_end = 0x4000000
                0x0000000004000000                PROVIDE (__alt_stack_pointer = __alt_data_end)
                [!provide]                        PROVIDE (__alt_stack_limit = __alt_stack_base)
                0x000000000002f4fc                PROVIDE (__alt_heap_start = end)
                0x0000000004000000                PROVIDE (__alt_heap_limit = 0x4000000)
OUTPUT(ucosii_binary_game_hal_part1.elf elf32-littlenios2)
LOAD linker stubs

.debug_ranges   0x0000000000000000     0x2478
 .debug_ranges  0x0000000000000000       0x20 ../ucosii_binary_game_hal_part1_bsp//obj/HAL/src/crt0.o
 .debug_ranges  0x0000000000000020       0x10 /opt/intelFPGA/20.1.1/nios2eds/bin/gnu/H-x86_64-pc-linux-gnu/bin/../lib/gcc/nios2-elf/10.1.1/../../../../../H-x86_64-pc-linux-gnu/nios2-elf/lib/mhw-mulx/libc.a(lib_a-memcpy.o)
 .debug_ranges  0x0000000000000030       0x18 /opt/intelFPGA/20.1.1/nios2eds/bin/gnu/H-x86_64-pc-linux-gnu/bin/../lib/gcc/nios2-elf/10.1.1/../../../../../H-x86_64-pc-linux-gnu/nios2-elf/lib/mhw-mulx/libc.a(lib_a-printf.o)
 .debug_ranges  0x0000000000000048       0x18 /opt/intelFPGA/20.1.1/nios2eds/bin/gnu/H-x86_64-pc-linux-gnu/bin/../lib/gcc/nios2-elf/10.1.1/../../../../../H-x86_64-pc-linux-gnu/nios2-elf/lib/mhw-mulx/libc.a(lib_a-rand.o)
 .debug_ranges  0x0000000000000060       0x10 /opt/intelFPGA/20.1.1/nios2eds/bin/gnu/H-x86_64-pc-linux-gnu/bin/../lib/gcc/nios2-elf/10.1.1/../../../../../H-x86_64-pc-linux-gnu/nios2-elf/lib/mhw-mulx/libc.a(lib_a-time.o)
 .debug_ranges  0x0000000000000070      0x1d8 /opt/intelFPGA/20.1.1/nios2eds/bin/gnu/H-x86_64-pc-linux-gnu/bin/../lib/gcc/nios2-elf/10.1.1/../../../../../H-x86_64-pc-linux-gnu/nios2-elf/lib/mhw-mulx/libc.a(lib_a-vfprintf.o)
 .debug_ranges  0x0000000000000248       0x30 /opt/intelFPGA/20.1.1/nios2eds/bin/gnu/H-x86_64-pc-linux-gnu/bin/../lib/gcc/nios2-elf/10.1.1/../../../../../H-x86_64-pc-linux-gnu/nios2-elf/lib/mhw-mulx/libc.a(lib_a-wsetup.o)
 .debug_ranges  0x0000000000000278       0x50 /opt/intelFPGA/20.1.1/nios2eds/bin/gnu/H-x86_64-pc-linux-gnu/bin/../lib/gcc/nios2-elf/10.1.1/../../../../../H-x86_64-pc-linux-gnu/nios2-elf/lib/mhw-mulx/libc.a(lib_a-dtoa.o)
 .debug_ranges  0x00000000000002c8       0xc8 /opt/intelFPGA/20.1.1/nios2eds/bin/gnu/H-x86_64-pc-linux-gnu/bin/../lib/gcc/nios2-elf/10.1.1/../../../../../H-x86_64-pc-linux-gnu/nios2-elf/lib/mhw-mulx/libc.a(lib_a-fflush.o)
 .debug_ranges  0x0000000000000390      0x148 /opt/intelFPGA/20.1.1/nios2eds/bin/gnu/H-x86_64-pc-linux-gnu/bin/../lib/gcc/nios2-elf/10.1.1/../../../../../H-x86_64-pc-linux-gnu/nios2-elf/lib/mhw-mulx/libc.a(lib_a-findfp.o)
 .debug_ranges  0x00000000000004d8       0x18 /opt/intelFPGA/20.1.1/nios2eds/bin/gnu/H-x86_64-pc-linux-gnu/bin/../lib/gcc/nios2-elf/10.1.1/../../../../../H-x86_64-pc-linux-gnu/nios2-elf/lib/mhw-mulx/libc.a(lib_a-freer.o)
 .debug_ranges  0x00000000000004f0       0x18 /opt/intelFPGA/20.1.1/nios2eds/bin/gnu/H-x86_64-pc-linux-gnu/bin/../lib/gcc/nios2-elf/10.1.1/../../../../../H-x86_64-pc-linux-gnu/nios2-elf/lib/mhw-mulx/libc.a(lib_a-fwalk.o)
 .debug_ranges  0x0000000000000508       0x10 /opt/intelFPGA/20.1.1/nios2eds/bin/gnu/H-x86_64-pc-linux-gnu/bin/../lib/gcc/nios2-elf/10.1.1/../../../../../H-x86_64-pc-linux-gnu/nios2-elf/lib/mhw-mulx/libc.a(lib_a-gettimeofdayr.o)
 .debug_ranges  0x0000000000000518       0x20 /opt/intelFPGA/20.1.1/nios2eds/bin/gnu/H-x86_64-pc-linux-gnu/bin/../lib/gcc/nios2-elf/10.1.1/../../../../../H-x86_64-pc-linux-gnu/nios2-elf/lib/mhw-mulx/libc.a(lib_a-localeconv.o)
 .debug_ranges  0x0000000000000538       0xc0 /opt/intelFPGA/20.1.1/nios2eds/bin/gnu/H-x86_64-pc-linux-gnu/bin/../lib/gcc/nios2-elf/10.1.1/../../../../../H-x86_64-pc-linux-gnu/nios2-elf/lib/mhw-mulx/libc.a(lib_a-makebuf.o)
 .debug_ranges  0x00000000000005f8       0x60 /opt/intelFPGA/20.1.1/nios2eds/bin/gnu/H-x86_64-pc-linux-gnu/bin/../lib/gcc/nios2-elf/10.1.1/../../../../../H-x86_64-pc-linux-gnu/nios2-elf/lib/mhw-mulx/libc.a(lib_a-mallocr.o)
 .debug_ranges  0x0000000000000658       0x10 /opt/intelFPGA/20.1.1/nios2eds/bin/gnu/H-x86_64-pc-linux-gnu/bin/../lib/gcc/nios2-elf/10.1.1/../../../../../H-x86_64-pc-linux-gnu/nios2-elf/lib/mhw-mulx/libc.a(lib_a-memchr.o)
 .debug_ranges  0x0000000000000668       0x10 /opt/intelFPGA/20.1.1/nios2eds/bin/gnu/H-x86_64-pc-linux-gnu/bin/../lib/gcc/nios2-elf/10.1.1/../../../../../H-x86_64-pc-linux-gnu/nios2-elf/lib/mhw-mulx/libc.a(lib_a-memset.o)
 .debug_ranges  0x0000000000000678      0x1e0 /opt/intelFPGA/20.1.1/nios2eds/bin/gnu/H-x86_64-pc-linux-gnu/bin/../lib/gcc/nios2-elf/10.1.1/../../../../../H-x86_64-pc-linux-gnu/nios2-elf/lib/mhw-mulx/libc.a(lib_a-mprec.o)
 .debug_ranges  0x0000000000000858       0x10 /opt/intelFPGA/20.1.1/nios2eds/bin/gnu/H-x86_64-pc-linux-gnu/bin/../lib/gcc/nios2-elf/10.1.1/../../../../../H-x86_64-pc-linux-gnu/nios2-elf/lib/mhw-mulx/libc.a(lib_a-sbrkr.o)
 .debug_ranges  0x0000000000000868       0x30 /opt/intelFPGA/20.1.1/nios2eds/bin/gnu/H-x86_64-pc-linux-gnu/bin/../lib/gcc/nios2-elf/10.1.1/../../../../../H-x86_64-pc-linux-gnu/nios2-elf/lib/mhw-mulx/libc.a(lib_a-stdio.o)
 .debug_ranges  0x0000000000000898       0x10 /opt/intelFPGA/20.1.1/nios2eds/bin/gnu/H-x86_64-pc-linux-gnu/bin/../lib/gcc/nios2-elf/10.1.1/../../../../../H-x86_64-pc-linux-gnu/nios2-elf/lib/mhw-mulx/libc.a(lib_a-strlen.o)
 .debug_ranges  0x00000000000008a8      0x1b8 /opt/intelFPGA/20.1.1/nios2eds/bin/gnu/H-x86_64-pc-linux-gnu/bin/../lib/gcc/nios2-elf/10.1.1/../../../../../H-x86_64-pc-linux-gnu/nios2-elf/lib/mhw-mulx/libc.a(lib_a-vfiprintf.o)
 .debug_ranges  0x0000000000000a60       0x10 /opt/intelFPGA/20.1.1/nios2eds/bin/gnu/H-x86_64-pc-linux-gnu/bin/../lib/gcc/nios2-elf/10.1.1/../../../../../H-x86_64-pc-linux-gnu/nios2-elf/lib/mhw-mulx/libc.a(lib_a-writer.o)
 .debug_ranges  0x0000000000000a70       0x10 /opt/intelFPGA/20.1.1/nios2eds/bin/gnu/H-x86_64-pc-linux-gnu/bin/../lib/gcc/nios2-elf/10.1.1/../../../../../H-x86_64-pc-linux-gnu/nios2-elf/lib/mhw-mulx/libc.a(closer.o)
 .debug_ranges  0x0000000000000a80       0x18 /opt/intelFPGA/20.1.1/nios2eds/bin/gnu/H-x86_64-pc-linux-gnu/bin/../lib/gcc/nios2-elf/10.1.1/../../../../../H-x86_64-pc-linux-gnu/nios2-elf/lib/mhw-mulx/libc.a(lib_a-assert.o)
 .debug_ranges  0x0000000000000a98       0x58 /opt/intelFPGA/20.1.1/nios2eds/bin/gnu/H-x86_64-pc-linux-gnu/bin/../lib/gcc/nios2-elf/10.1.1/../../../../../H-x86_64-pc-linux-gnu/nios2-elf/lib/mhw-mulx/libc.a(lib_a-callocr.o)
 .debug_ranges  0x0000000000000af0       0x90 /opt/intelFPGA/20.1.1/nios2eds/bin/gnu/H-x86_64-pc-linux-gnu/bin/../lib/gcc/nios2-elf/10.1.1/../../../../../H-x86_64-pc-linux-gnu/nios2-elf/lib/mhw-mulx/libc.a(lib_a-fclose.o)
 .debug_ranges  0x0000000000000b80       0x18 /opt/intelFPGA/20.1.1/nios2eds/bin/gnu/H-x86_64-pc-linux-gnu/bin/../lib/gcc/nios2-elf/10.1.1/../../../../../H-x86_64-pc-linux-gnu/nios2-elf/lib/mhw-mulx/libc.a(lib_a-fiprintf.o)
 .debug_ranges  0x0000000000000b98       0x58 /opt/intelFPGA/20.1.1/nios2eds/bin/gnu/H-x86_64-pc-linux-gnu/bin/../lib/gcc/nios2-elf/10.1.1/../../../../../H-x86_64-pc-linux-gnu/nios2-elf/lib/mhw-mulx/libc.a(lib_a-fputwc.o)
 .debug_ranges  0x0000000000000bf0       0x10 /opt/intelFPGA/20.1.1/nios2eds/bin/gnu/H-x86_64-pc-linux-gnu/bin/../lib/gcc/nios2-elf/10.1.1/../../../../../H-x86_64-pc-linux-gnu/nios2-elf/lib/mhw-mulx/libc.a(lib_a-fstatr.o)
 .debug_ranges  0x0000000000000c00       0x38 /opt/intelFPGA/20.1.1/nios2eds/bin/gnu/H-x86_64-pc-linux-gnu/bin/../lib/gcc/nios2-elf/10.1.1/../../../../../H-x86_64-pc-linux-gnu/nios2-elf/lib/mhw-mulx/libc.a(lib_a-fvwrite.o)
 .debug_ranges  0x0000000000000c38       0x10 /opt/intelFPGA/20.1.1/nios2eds/bin/gnu/H-x86_64-pc-linux-gnu/bin/../lib/gcc/nios2-elf/10.1.1/../../../../../H-x86_64-pc-linux-gnu/nios2-elf/lib/mhw-mulx/libc.a(lib_a-isattyr.o)
 .debug_ranges  0x0000000000000c48       0x80 /opt/intelFPGA/20.1.1/nios2eds/bin/gnu/H-x86_64-pc-linux-gnu/bin/../lib/gcc/nios2-elf/10.1.1/../../../../../H-x86_64-pc-linux-gnu/nios2-elf/lib/mhw-mulx/libc.a(lib_a-locale.o)
 .debug_ranges  0x0000000000000cc8       0x10 /opt/intelFPGA/20.1.1/nios2eds/bin/gnu/H-x86_64-pc-linux-gnu/bin/../lib/gcc/nios2-elf/10.1.1/../../../../../H-x86_64-pc-linux-gnu/nios2-elf/lib/mhw-mulx/libc.a(lib_a-lseekr.o)
 .debug_ranges  0x0000000000000cd8       0x18 /opt/intelFPGA/20.1.1/nios2eds/bin/gnu/H-x86_64-pc-linux-gnu/bin/../lib/gcc/nios2-elf/10.1.1/../../../../../H-x86_64-pc-linux-gnu/nios2-elf/lib/mhw-mulx/libc.a(lib_a-mbtowc_r.o)
 .debug_ranges  0x0000000000000cf0       0x10 /opt/intelFPGA/20.1.1/nios2eds/bin/gnu/H-x86_64-pc-linux-gnu/bin/../lib/gcc/nios2-elf/10.1.1/../../../../../H-x86_64-pc-linux-gnu/nios2-elf/lib/mhw-mulx/libc.a(lib_a-memmove.o)
 .debug_ranges  0x0000000000000d00       0x10 /opt/intelFPGA/20.1.1/nios2eds/bin/gnu/H-x86_64-pc-linux-gnu/bin/../lib/gcc/nios2-elf/10.1.1/../../../../../H-x86_64-pc-linux-gnu/nios2-elf/lib/mhw-mulx/libc.a(lib_a-readr.o)
 .debug_ranges  0x0000000000000d10      0x160 /opt/intelFPGA/20.1.1/nios2eds/bin/gnu/H-x86_64-pc-linux-gnu/bin/../lib/gcc/nios2-elf/10.1.1/../../../../../H-x86_64-pc-linux-gnu/nios2-elf/lib/mhw-mulx/libc.a(lib_a-reallocr.o)
 .debug_ranges  0x0000000000000e70       0x10 /opt/intelFPGA/20.1.1/nios2eds/bin/gnu/H-x86_64-pc-linux-gnu/bin/../lib/gcc/nios2-elf/10.1.1/../../../../../H-x86_64-pc-linux-gnu/nios2-elf/lib/mhw-mulx/libc.a(lib_a-strcmp.o)
 .debug_ranges  0x0000000000000e80       0x10 /opt/intelFPGA/20.1.1/nios2eds/bin/gnu/H-x86_64-pc-linux-gnu/bin/../lib/gcc/nios2-elf/10.1.1/../../../../../H-x86_64-pc-linux-gnu/nios2-elf/lib/mhw-mulx/libc.a(lib_a-vfiprintfr_1.o)
 .debug_ranges  0x0000000000000e90       0x40 /opt/intelFPGA/20.1.1/nios2eds/bin/gnu/H-x86_64-pc-linux-gnu/bin/../lib/gcc/nios2-elf/10.1.1/../../../../../H-x86_64-pc-linux-gnu/nios2-elf/lib/mhw-mulx/libc.a(lib_a-wbuf.o)
 .debug_ranges  0x0000000000000ed0       0x18 /opt/intelFPGA/20.1.1/nios2eds/bin/gnu/H-x86_64-pc-linux-gnu/bin/../lib/gcc/nios2-elf/10.1.1/../../../../../H-x86_64-pc-linux-gnu/nios2-elf/lib/mhw-mulx/libc.a(lib_a-wcrtomb.o)
 .debug_ranges  0x0000000000000ee8       0x18 /opt/intelFPGA/20.1.1/nios2eds/bin/gnu/H-x86_64-pc-linux-gnu/bin/../lib/gcc/nios2-elf/10.1.1/../../../../../H-x86_64-pc-linux-gnu/nios2-elf/lib/mhw-mulx/libc.a(lib_a-wctomb_r.o)
 .debug_ranges  0x0000000000000f00       0x10 /opt/intelFPGA/20.1.1/nios2eds/bin/gnu/H-x86_64-pc-linux-gnu/bin/../lib/gcc/nios2-elf/10.1.1/../../../../../H-x86_64-pc-linux-gnu/nios2-elf/lib/mhw-mulx/libc.a(lib_a-abort.o)
 .debug_ranges  0x0000000000000f10      0x100 /opt/intelFPGA/20.1.1/nios2eds/bin/gnu/H-x86_64-pc-linux-gnu/bin/../lib/gcc/nios2-elf/10.1.1/../../../../../H-x86_64-pc-linux-gnu/nios2-elf/lib/mhw-mulx/libc.a(lib_a-signal.o)
 .debug_ranges  0x0000000000001010       0x18 /opt/intelFPGA/20.1.1/nios2eds/bin/gnu/H-x86_64-pc-linux-gnu/bin/../lib/gcc/nios2-elf/10.1.1/../../../../../H-x86_64-pc-linux-gnu/nios2-elf/lib/mhw-mulx/libc.a(lib_a-signalr.o)
 .debug_ranges  0x0000000000001028      0x1d0 /opt/intelFPGA/20.1.1/nios2eds/bin/gnu/H-x86_64-pc-linux-gnu/bin/../lib/gcc/nios2-elf/10.1.1/mhw-mulx/libgcc.a(_udivdi3.o)
 .debug_ranges  0x00000000000011f8      0x180 /opt/intelFPGA/20.1.1/nios2eds/bin/gnu/H-x86_64-pc-linux-gnu/bin/../lib/gcc/nios2-elf/10.1.1/mhw-mulx/libgcc.a(_umoddi3.o)
 .debug_ranges  0x0000000000001378       0x70 /opt/intelFPGA/20.1.1/nios2eds/bin/gnu/H-x86_64-pc-linux-gnu/bin/../lib/gcc/nios2-elf/10.1.1/mhw-mulx/libgcc.a(lib2-divmod.o)
 .debug_ranges  0x00000000000013e8      0x300 /opt/intelFPGA/20.1.1/nios2eds/bin/gnu/H-x86_64-pc-linux-gnu/bin/../lib/gcc/nios2-elf/10.1.1/mhw-mulx/libgcc.a(adddf3.o)
 .debug_ranges  0x00000000000016e8      0x260 /opt/intelFPGA/20.1.1/nios2eds/bin/gnu/H-x86_64-pc-linux-gnu/bin/../lib/gcc/nios2-elf/10.1.1/mhw-mulx/libgcc.a(divdf3.o)
 .debug_ranges  0x0000000000001948       0x48 /opt/intelFPGA/20.1.1/nios2eds/bin/gnu/H-x86_64-pc-linux-gnu/bin/../lib/gcc/nios2-elf/10.1.1/mhw-mulx/libgcc.a(eqdf2.o)
 .debug_ranges  0x0000000000001990       0x70 /opt/intelFPGA/20.1.1/nios2eds/bin/gnu/H-x86_64-pc-linux-gnu/bin/../lib/gcc/nios2-elf/10.1.1/mhw-mulx/libgcc.a(gedf2.o)
 .debug_ranges  0x0000000000001a00       0x70 /opt/intelFPGA/20.1.1/nios2eds/bin/gnu/H-x86_64-pc-linux-gnu/bin/../lib/gcc/nios2-elf/10.1.1/mhw-mulx/libgcc.a(ledf2.o)
 .debug_ranges  0x0000000000001a70      0x2d0 /opt/intelFPGA/20.1.1/nios2eds/bin/gnu/H-x86_64-pc-linux-gnu/bin/../lib/gcc/nios2-elf/10.1.1/mhw-mulx/libgcc.a(muldf3.o)
 .debug_ranges  0x0000000000001d40      0x398 /opt/intelFPGA/20.1.1/nios2eds/bin/gnu/H-x86_64-pc-linux-gnu/bin/../lib/gcc/nios2-elf/10.1.1/mhw-mulx/libgcc.a(subdf3.o)
 .debug_ranges  0x00000000000020d8       0x48 /opt/intelFPGA/20.1.1/nios2eds/bin/gnu/H-x86_64-pc-linux-gnu/bin/../lib/gcc/nios2-elf/10.1.1/mhw-mulx/libgcc.a(unorddf2.o)
 .debug_ranges  0x0000000000002120       0x18 /opt/intelFPGA/20.1.1/nios2eds/bin/gnu/H-x86_64-pc-linux-gnu/bin/../lib/gcc/nios2-elf/10.1.1/mhw-mulx/libgcc.a(fixdfsi.o)
 .debug_ranges  0x0000000000002138       0xd8 /opt/intelFPGA/20.1.1/nios2eds/bin/gnu/H-x86_64-pc-linux-gnu/bin/../lib/gcc/nios2-elf/10.1.1/mhw-mulx/libgcc.a(floatsidf.o)
 .debug_ranges  0x0000000000002210       0xd8 /opt/intelFPGA/20.1.1/nios2eds/bin/gnu/H-x86_64-pc-linux-gnu/bin/../lib/gcc/nios2-elf/10.1.1/mhw-mulx/libgcc.a(floatunsidf.o)
 .debug_ranges  0x00000000000022e8       0x20 /opt/intelFPGA/20.1.1/nios2eds/bin/gnu/H-x86_64-pc-linux-gnu/bin/../lib/gcc/nios2-elf/10.1.1/mhw-mulx/libgcc.a(_clzsi2.o)
 .debug_ranges  0x0000000000002308       0x30 ../ucosii_binary_game_hal_part1_bsp//libucosii_bsp.a(altera_avalon_jtag_uart_init.o)
 .debug_ranges  0x0000000000002338       0x30 ../ucosii_binary_game_hal_part1_bsp//libucosii_bsp.a(altera_avalon_jtag_uart_read.o)
 .debug_ranges  0x0000000000002368       0x18 ../ucosii_binary_game_hal_part1_bsp//libucosii_bsp.a(altera_avalon_jtag_uart_write.o)
 .debug_ranges  0x0000000000002380       0x28 ../ucosii_binary_game_hal_part1_bsp//libucosii_bsp.a(alt_irq_entry.o)
 .debug_ranges  0x00000000000023a8       0x10 ../ucosii_binary_game_hal_part1_bsp//libucosii_bsp.a(alt_irq_handler.o)
 .debug_ranges  0x00000000000023b8       0x30 ../ucosii_binary_game_hal_part1_bsp//libucosii_bsp.a(alt_exception_entry.o)
 .debug_ranges  0x00000000000023e8       0x18 ../ucosii_binary_game_hal_part1_bsp//libucosii_bsp.a(alt_instruction_exception_entry.o)
 .debug_ranges  0x0000000000002400       0x10 /opt/intelFPGA/20.1.1/nios2eds/bin/gnu/H-x86_64-pc-linux-gnu/bin/../lib/gcc/nios2-elf/10.1.1/../../../../../H-x86_64-pc-linux-gnu/nios2-elf/lib/mhw-mulx/libc.a(lib_a-atexit.o)
 .debug_ranges  0x0000000000002410       0x10 /opt/intelFPGA/20.1.1/nios2eds/bin/gnu/H-x86_64-pc-linux-gnu/bin/../lib/gcc/nios2-elf/10.1.1/../../../../../H-x86_64-pc-linux-gnu/nios2-elf/lib/mhw-mulx/libc.a(lib_a-exit.o)
 .debug_ranges  0x0000000000002420       0x10 /opt/intelFPGA/20.1.1/nios2eds/bin/gnu/H-x86_64-pc-linux-gnu/bin/../lib/gcc/nios2-elf/10.1.1/../../../../../H-x86_64-pc-linux-gnu/nios2-elf/lib/mhw-mulx/libc.a(lib_a-memcmp.o)
 .debug_ranges  0x0000000000002430       0x10 /opt/intelFPGA/20.1.1/nios2eds/bin/gnu/H-x86_64-pc-linux-gnu/bin/../lib/gcc/nios2-elf/10.1.1/../../../../../H-x86_64-pc-linux-gnu/nios2-elf/lib/mhw-mulx/libc.a(lib_a-__atexit.o)
 .debug_ranges  0x0000000000002440       0x38 /opt/intelFPGA/20.1.1/nios2eds/bin/gnu/H-x86_64-pc-linux-gnu/bin/../lib/gcc/nios2-elf/10.1.1/../../../../../H-x86_64-pc-linux-gnu/nios2-elf/lib/mhw-mulx/libc.a(lib_a-__call_atexit.o)
